                                      1 ;--------------------------------------------------------
                                      2 ; File Created by SDCC : free open source ANSI-C Compiler
                                      3 ; Version 3.3.1 #8898 (Nov 27 2013) (Linux)
                                      4 ; This file was generated Wed Nov 27 12:27:55 2013
                                      5 ;--------------------------------------------------------
                                      6 	.module _fsadd
                                      7 	.optsdcc -mmcs51 --model-large
                                      8 	
                                      9 ;--------------------------------------------------------
                                     10 ; Public variables in this module
                                     11 ;--------------------------------------------------------
                                     12 ;--------------------------------------------------------
                                     13 ; special function registers
                                     14 ;--------------------------------------------------------
                                     15 	.area RSEG    (ABS,DATA)
      000000                         16 	.org 0x0000
                                     17 ;--------------------------------------------------------
                                     18 ; special function bits
                                     19 ;--------------------------------------------------------
                                     20 	.area RSEG    (ABS,DATA)
      000000                         21 	.org 0x0000
                                     22 ;--------------------------------------------------------
                                     23 ; overlayable register banks
                                     24 ;--------------------------------------------------------
                                     25 	.area REG_BANK_0	(REL,OVR,DATA)
      000000                         26 	.ds 8
                                     27 ;--------------------------------------------------------
                                     28 ; internal ram data
                                     29 ;--------------------------------------------------------
                                     30 	.area DSEG    (DATA)
                                     31 ;--------------------------------------------------------
                                     32 ; overlayable items in internal ram 
                                     33 ;--------------------------------------------------------
                                     34 ;--------------------------------------------------------
                                     35 ; indirectly addressable internal ram data
                                     36 ;--------------------------------------------------------
                                     37 	.area ISEG    (DATA)
                                     38 ;--------------------------------------------------------
                                     39 ; absolute internal ram data
                                     40 ;--------------------------------------------------------
                                     41 	.area IABS    (ABS,DATA)
                                     42 	.area IABS    (ABS,DATA)
                                     43 ;--------------------------------------------------------
                                     44 ; bit data
                                     45 ;--------------------------------------------------------
                                     46 	.area BSEG    (BIT)
                                     47 ;--------------------------------------------------------
                                     48 ; paged external ram data
                                     49 ;--------------------------------------------------------
                                     50 	.area PSEG    (PAG,XDATA)
                                     51 ;--------------------------------------------------------
                                     52 ; external ram data
                                     53 ;--------------------------------------------------------
                                     54 	.area XSEG    (XDATA)
                                     55 ;--------------------------------------------------------
                                     56 ; absolute external ram data
                                     57 ;--------------------------------------------------------
                                     58 	.area XABS    (ABS,XDATA)
                                     59 ;--------------------------------------------------------
                                     60 ; external initialized ram data
                                     61 ;--------------------------------------------------------
                                     62 	.area XISEG   (XDATA)
                                     63 	.area HOME    (CODE)
                                     64 	.area GSINIT0 (CODE)
                                     65 	.area GSINIT1 (CODE)
                                     66 	.area GSINIT2 (CODE)
                                     67 	.area GSINIT3 (CODE)
                                     68 	.area GSINIT4 (CODE)
                                     69 	.area GSINIT5 (CODE)
                                     70 	.area GSINIT  (CODE)
                                     71 	.area GSFINAL (CODE)
                                     72 	.area CSEG    (CODE)
                                     73 ;--------------------------------------------------------
                                     74 ; global & static initialisations
                                     75 ;--------------------------------------------------------
                                     76 	.area HOME    (CODE)
                                     77 	.area GSINIT  (CODE)
                                     78 	.area GSFINAL (CODE)
                                     79 	.area GSINIT  (CODE)
                                     80 ;--------------------------------------------------------
                                     81 ; Home
                                     82 ;--------------------------------------------------------
                                     83 	.area HOME    (CODE)
                                     84 	.area HOME    (CODE)
                                     85 ;--------------------------------------------------------
                                     86 ; code
                                     87 ;--------------------------------------------------------
                                     88 	.area CSEG    (CODE)
                                     89 ;------------------------------------------------------------
                                     90 ;Allocation info for local variables in function 'dummy'
                                     91 ;------------------------------------------------------------
                                     92 ;	_fsadd.c:38: static void dummy(void) __naked
                                     93 ;	-----------------------------------------
                                     94 ;	 function dummy
                                     95 ;	-----------------------------------------
      000000                         96 _dummy:
                                     97 ;	naked function: no prologue.
                                     98 ;	_fsadd.c:142: __endasm;
                                     99 	.globl ___fsadd
      000000                        100 	___fsadd:
      000000 12r00r00         [24]  101 	lcall fsgetargs
                                    102 	.globl fsadd_direct_entry
      000003                        103 	fsadd_direct_entry:
      000003 79 00            [12]  104 	mov r1, #0
      000005 E5 83            [12]  105 	mov a, dph
      000007 B5 82 02         [24]  106 	cjne a, dpl, 00005$
      00000A 80 0D            [24]  107 	sjmp 00011$
      00000C                        108 	00005$:
      00000C 50 03            [24]  109 	jnc 00010$
      00000E 12r00r00         [24]  110 	lcall fs_swap_a_b
      000011                        111 	00010$:
      000011 E5 83            [12]  112 	mov a, dph
      000013 C3               [12]  113 	clr c
      000014 95 82            [12]  114 	subb a, dpl
      000016 12r00r00         [24]  115 	lcall fs_rshift_a
      000019                        116 	00011$:
      000019 E5 D0            [12]  117 	mov a, psw
      00001B C4               [12]  118 	swap a
      00001C 65 D0            [12]  119 	xrl a, psw
      00001E 20 E1 17         [24]  120 	jb acc.1, 00022$
      000021                        121 	00020$:
      000021 EA               [12]  122 	mov a, r2
      000022 2D               [12]  123 	add a, r5
      000023 FA               [12]  124 	mov r2, a
      000024 EB               [12]  125 	mov a, r3
      000025 3E               [12]  126 	addc a, r6
      000026 FB               [12]  127 	mov r3, a
      000027 EC               [12]  128 	mov a, r4
      000028 3F               [12]  129 	addc a, r7
      000029 FC               [12]  130 	mov r4, a
      00002A 50 09            [24]  131 	jnc 00021$
      00002C 74 01            [12]  132 	mov a, #1
      00002E 12r00r00         [24]  133 	lcall fs_rshift_a
      000031 EC               [12]  134 	mov a, r4
      000032 44 80            [12]  135 	orl a, #0x80
      000034 FC               [12]  136 	mov r4, a
      000035                        137 	00021$:
      000035 02r00r00         [24]  138 	ljmp fs_round_and_return
      000038                        139 	00022$:
      000038 C3               [12]  140 	clr c
      000039 EA               [12]  141 	mov a, r2
      00003A 9D               [12]  142 	subb a, r5
      00003B FA               [12]  143 	mov r2, a
      00003C EB               [12]  144 	mov a, r3
      00003D 9E               [12]  145 	subb a, r6
      00003E FB               [12]  146 	mov r3, a
      00003F EC               [12]  147 	mov a, r4
      000040 9F               [12]  148 	subb a, r7
      000041 FC               [12]  149 	mov r4, a
      000042 50 0F            [24]  150 	jnc 00025$
      000044 C3               [12]  151 	clr c
      000045 E4               [12]  152 	clr a
      000046 99               [12]  153 	subb a, r1
      000047 F9               [12]  154 	mov r1, a
      000048 E4               [12]  155 	clr a
      000049 9A               [12]  156 	subb a, r2
      00004A FA               [12]  157 	mov r2, a
      00004B E4               [12]  158 	clr a
      00004C 9B               [12]  159 	subb a, r3
      00004D FB               [12]  160 	mov r3, a
      00004E E4               [12]  161 	clr a
      00004F 9C               [12]  162 	subb a, r4
      000050 FC               [12]  163 	mov r4, a
      000051 B2 D1            [12]  164 	cpl psw.1
      000053                        165 	00025$:
      000053 12r00r00         [24]  166 	lcall fs_normalize_a
      000056 02r00r00         [24]  167 	ljmp fs_round_and_return
                                    168 ;	naked function: no epilogue.
                                    169 	.area CSEG    (CODE)
                                    170 	.area CONST   (CODE)
                                    171 	.area XINIT   (CODE)
                                    172 	.area CABS    (ABS,CODE)
