                                      1 ;--------------------------------------------------------
                                      2 ; File Created by SDCC : free open source ANSI-C Compiler
                                      3 ; Version 3.3.1 #8898 (Nov 27 2013) (Linux)
                                      4 ; This file was generated Wed Nov 27 12:27:55 2013
                                      5 ;--------------------------------------------------------
                                      6 	.module _fsdiv
                                      7 	.optsdcc -mmcs51 --model-large
                                      8 	
                                      9 ;--------------------------------------------------------
                                     10 ; Public variables in this module
                                     11 ;--------------------------------------------------------
                                     12 ;--------------------------------------------------------
                                     13 ; special function registers
                                     14 ;--------------------------------------------------------
                                     15 	.area RSEG    (ABS,DATA)
      000000                         16 	.org 0x0000
                                     17 ;--------------------------------------------------------
                                     18 ; special function bits
                                     19 ;--------------------------------------------------------
                                     20 	.area RSEG    (ABS,DATA)
      000000                         21 	.org 0x0000
                                     22 ;--------------------------------------------------------
                                     23 ; overlayable register banks
                                     24 ;--------------------------------------------------------
                                     25 	.area REG_BANK_0	(REL,OVR,DATA)
      000000                         26 	.ds 8
                                     27 ;--------------------------------------------------------
                                     28 ; internal ram data
                                     29 ;--------------------------------------------------------
                                     30 	.area DSEG    (DATA)
                                     31 ;--------------------------------------------------------
                                     32 ; overlayable items in internal ram 
                                     33 ;--------------------------------------------------------
                                     34 ;--------------------------------------------------------
                                     35 ; indirectly addressable internal ram data
                                     36 ;--------------------------------------------------------
                                     37 	.area ISEG    (DATA)
                                     38 ;--------------------------------------------------------
                                     39 ; absolute internal ram data
                                     40 ;--------------------------------------------------------
                                     41 	.area IABS    (ABS,DATA)
                                     42 	.area IABS    (ABS,DATA)
                                     43 ;--------------------------------------------------------
                                     44 ; bit data
                                     45 ;--------------------------------------------------------
                                     46 	.area BSEG    (BIT)
                                     47 ;--------------------------------------------------------
                                     48 ; paged external ram data
                                     49 ;--------------------------------------------------------
                                     50 	.area PSEG    (PAG,XDATA)
                                     51 ;--------------------------------------------------------
                                     52 ; external ram data
                                     53 ;--------------------------------------------------------
                                     54 	.area XSEG    (XDATA)
                                     55 ;--------------------------------------------------------
                                     56 ; absolute external ram data
                                     57 ;--------------------------------------------------------
                                     58 	.area XABS    (ABS,XDATA)
                                     59 ;--------------------------------------------------------
                                     60 ; external initialized ram data
                                     61 ;--------------------------------------------------------
                                     62 	.area XISEG   (XDATA)
                                     63 	.area HOME    (CODE)
                                     64 	.area GSINIT0 (CODE)
                                     65 	.area GSINIT1 (CODE)
                                     66 	.area GSINIT2 (CODE)
                                     67 	.area GSINIT3 (CODE)
                                     68 	.area GSINIT4 (CODE)
                                     69 	.area GSINIT5 (CODE)
                                     70 	.area GSINIT  (CODE)
                                     71 	.area GSFINAL (CODE)
                                     72 	.area CSEG    (CODE)
                                     73 ;--------------------------------------------------------
                                     74 ; global & static initialisations
                                     75 ;--------------------------------------------------------
                                     76 	.area HOME    (CODE)
                                     77 	.area GSINIT  (CODE)
                                     78 	.area GSFINAL (CODE)
                                     79 	.area GSINIT  (CODE)
                                     80 ;--------------------------------------------------------
                                     81 ; Home
                                     82 ;--------------------------------------------------------
                                     83 	.area HOME    (CODE)
                                     84 	.area HOME    (CODE)
                                     85 ;--------------------------------------------------------
                                     86 ; code
                                     87 ;--------------------------------------------------------
                                     88 	.area CSEG    (CODE)
                                     89 ;------------------------------------------------------------
                                     90 ;Allocation info for local variables in function 'dummy'
                                     91 ;------------------------------------------------------------
                                     92 ;	_fsdiv.c:37: static void dummy(void) __naked
                                     93 ;	-----------------------------------------
                                     94 ;	 function dummy
                                     95 ;	-----------------------------------------
      000000                         96 _dummy:
                                     97 ;	naked function: no prologue.
                                     98 ;	_fsdiv.c:244: __endasm;
                                     99 	.globl ___fsdiv
      000000                        100 	___fsdiv:
      000000 12r00r00         [24]  101 	lcall fsgetargs
      000003 30 D5 02         [24]  102 	jnb psw.5, 00001$
      000006 B2 D1            [12]  103 	cpl psw.1
      000008                        104 	00001$:
      000008 BF 00 09         [24]  105 	cjne r7, #0, 00003$
      00000B BC 00 03         [24]  106 	cjne r4, #0, 00002$
      00000E 02r00r00         [24]  107 	ljmp fs_return_nan
      000011                        108 	00002$:
      000011 02r00r00         [24]  109 	ljmp fs_return_inf
      000014                        110 	00003$:
      000014 BC 00 03         [24]  111 	cjne r4, #0, 00004$
      000017 02r00r00         [24]  112 	ljmp fs_return_zero
      00001A                        113 	00004$:
      00001A E5 83            [12]  114 	mov a, dph
      00001C B4 FF 0B         [24]  115 	cjne a, #0xFF, 00006$
      00001F E5 82            [12]  116 	mov a, dpl
      000021 B4 FF 03         [24]  117 	cjne a, #0xFF, 00005$
      000024 02r00r00         [24]  118 	ljmp fs_return_nan
      000027                        119 	00005$:
      000027 02r00r00         [24]  120 	ljmp fs_return_zero
      00002A                        121 	00006$:
      00002A E5 82            [12]  122 	mov a, dpl
      00002C B4 FF 03         [24]  123 	cjne a, #0xFF, 00007$
      00002F 02r00r00         [24]  124 	ljmp fs_return_inf
      000032                        125 	00007$:
      000032 C3               [12]  126 	clr c
      000033 95 83            [12]  127 	subb a, dph
      000035 50 07            [24]  128 	jnc 00008$
      000037 24 7F            [12]  129 	add a, #127
      000039 40 0B            [24]  130 	jc 00009$
      00003B 02r00r00         [24]  131 	ljmp fs_return_zero
      00003E                        132 	00008$:
      00003E 24 80            [12]  133 	add a, #128
      000040 14               [12]  134 	dec a
      000041 50 03            [24]  135 	jnc 00009$
      000043 02r00r00         [24]  136 	ljmp fs_return_inf
      000046                        137 	00009$:
      000046 F5 82            [12]  138 	mov dpl, a
      000048 C3               [12]  139 	clr c
      000049 ED               [12]  140 	mov a, r5
      00004A 9A               [12]  141 	subb a, r2
      00004B EE               [12]  142 	mov a, r6
      00004C 9B               [12]  143 	subb a, r3
      00004D EF               [12]  144 	mov a, r7
      00004E 9C               [12]  145 	subb a, r4
      00004F 40 11            [24]  146 	jc 00010$
      000051 15 82            [12]  147 	dec dpl
      000053 C3               [12]  148 	clr c
      000054 EA               [12]  149 	mov a, r2
      000055 33               [12]  150 	rlc a
      000056 F9               [12]  151 	mov r1, a
      000057 EB               [12]  152 	mov a, r3
      000058 33               [12]  153 	rlc a
      000059 FA               [12]  154 	mov r2, a
      00005A EC               [12]  155 	mov a, r4
      00005B 33               [12]  156 	rlc a
      00005C FB               [12]  157 	mov r3, a
      00005D E4               [12]  158 	clr a
      00005E 33               [12]  159 	rlc a
      00005F FC               [12]  160 	mov r4, a
      000060 80 05            [24]  161 	sjmp 00011$
      000062                        162 	00010$:
      000062 E4               [12]  163 	clr a
      000063 CC               [12]  164 	xch a, r4
      000064 CB               [12]  165 	xch a, r3
      000065 CA               [12]  166 	xch a, r2
      000066 F9               [12]  167 	mov r1, a
      000067                        168 	00011$:
      000067 C0 82            [24]  169 	push dpl
      000069 75 F0 19         [24]  170 	mov b, #25
      00006C                        171 	00012$:
      00006C C3               [12]  172 	clr c
      00006D E9               [12]  173 	mov a, r1
      00006E 9D               [12]  174 	subb a, r5
      00006F EA               [12]  175 	mov a, r2
      000070 9E               [12]  176 	subb a, r6
      000071 EB               [12]  177 	mov a, r3
      000072 9F               [12]  178 	subb a, r7
      000073 EC               [12]  179 	mov a, r4
      000074 94 00            [12]  180 	subb a, #0
      000076 D5 F0 02         [24]  181 	djnz b, 00013$
      000079 80 2D            [24]  182 	sjmp 00015$
      00007B                        183 	00013$:
      00007B 40 0E            [24]  184 	jc 00014$
      00007D E9               [12]  185 	mov a, r1
      00007E 9D               [12]  186 	subb a, r5
      00007F F9               [12]  187 	mov r1, a
      000080 EA               [12]  188 	mov a, r2
      000081 9E               [12]  189 	subb a, r6
      000082 FA               [12]  190 	mov r2, a
      000083 EB               [12]  191 	mov a, r3
      000084 9F               [12]  192 	subb a, r7
      000085 FB               [12]  193 	mov r3, a
      000086 EC               [12]  194 	mov a, r4
      000087 94 00            [12]  195 	subb a, #0
      000089 FC               [12]  196 	mov r4, a
      00008A C3               [12]  197 	clr c
      00008B                        198 	00014$:
      00008B B3               [12]  199 	cpl c
      00008C E8               [12]  200 	mov a, r0
      00008D 33               [12]  201 	rlc a
      00008E F8               [12]  202 	mov r0, a
      00008F E5 82            [12]  203 	mov a, dpl
      000091 33               [12]  204 	rlc a
      000092 F5 82            [12]  205 	mov dpl, a
      000094 E5 83            [12]  206 	mov a, dph
      000096 33               [12]  207 	rlc a
      000097 F5 83            [12]  208 	mov dph, a
      000099 C3               [12]  209 	clr c
      00009A E9               [12]  210 	mov a, r1
      00009B 33               [12]  211 	rlc a
      00009C F9               [12]  212 	mov r1, a
      00009D EA               [12]  213 	mov a, r2
      00009E 33               [12]  214 	rlc a
      00009F FA               [12]  215 	mov r2, a
      0000A0 EB               [12]  216 	mov a, r3
      0000A1 33               [12]  217 	rlc a
      0000A2 FB               [12]  218 	mov r3, a
      0000A3 EC               [12]  219 	mov a, r4
      0000A4 33               [12]  220 	rlc a
      0000A5 FC               [12]  221 	mov r4, a
      0000A6 80 C4            [24]  222 	sjmp 00012$
      0000A8                        223 	00015$:
      0000A8 B3               [12]  224 	cpl c
      0000A9 E4               [12]  225 	clr a
      0000AA F9               [12]  226 	mov r1, a
      0000AB 38               [12]  227 	addc a, r0
      0000AC FA               [12]  228 	mov r2, a
      0000AD E4               [12]  229 	clr a
      0000AE 35 82            [12]  230 	addc a, dpl
      0000B0 FB               [12]  231 	mov r3, a
      0000B1 E4               [12]  232 	clr a
      0000B2 35 83            [12]  233 	addc a, dph
      0000B4 FC               [12]  234 	mov r4, a
      0000B5 D0 82            [24]  235 	pop dpl
      0000B7 50 04            [24]  236 	jnc 00016$
      0000B9 05 82            [12]  237 	inc dpl
      0000BB 7C 80            [12]  238 	mov r4, #0x80
      0000BD                        239 	00016$:
      0000BD 12r00r00         [24]  240 	lcall fs_normalize_a
      0000C0 02r00r00         [24]  241 	ljmp fs_zerocheck_return
                                    242 ;	naked function: no epilogue.
                                    243 	.area CSEG    (CODE)
                                    244 	.area CONST   (CODE)
                                    245 	.area XINIT   (CODE)
                                    246 	.area CABS    (ABS,CODE)
