;--------------------------------------------------------
; File Created by SDCC : free open source ANSI-C Compiler
; Version 3.3.1 #8898 (Nov 27 2013) (Linux)
; This file was generated Wed Nov 27 12:28:13 2013
;--------------------------------------------------------
	.module expf
	.optsdcc -mmcs51 --model-huge
	
;--------------------------------------------------------
; Public variables in this module
;--------------------------------------------------------
	.globl _ldexpf
	.globl _expf
;--------------------------------------------------------
; special function registers
;--------------------------------------------------------
	.area RSEG    (ABS,DATA)
	.org 0x0000
;--------------------------------------------------------
; special function bits
;--------------------------------------------------------
	.area RSEG    (ABS,DATA)
	.org 0x0000
;--------------------------------------------------------
; overlayable register banks
;--------------------------------------------------------
	.area REG_BANK_0	(REL,OVR,DATA)
	.ds 8
;--------------------------------------------------------
; overlayable bit register bank
;--------------------------------------------------------
	.area BIT_BANK	(REL,OVR,DATA)
bits:
	.ds 1
	b0 = bits[0]
	b1 = bits[1]
	b2 = bits[2]
	b3 = bits[3]
	b4 = bits[4]
	b5 = bits[5]
	b6 = bits[6]
	b7 = bits[7]
;--------------------------------------------------------
; internal ram data
;--------------------------------------------------------
	.area DSEG    (DATA)
;--------------------------------------------------------
; overlayable items in internal ram 
;--------------------------------------------------------
;--------------------------------------------------------
; indirectly addressable internal ram data
;--------------------------------------------------------
	.area ISEG    (DATA)
;--------------------------------------------------------
; absolute internal ram data
;--------------------------------------------------------
	.area IABS    (ABS,DATA)
	.area IABS    (ABS,DATA)
;--------------------------------------------------------
; bit data
;--------------------------------------------------------
	.area BSEG    (BIT)
;--------------------------------------------------------
; paged external ram data
;--------------------------------------------------------
	.area PSEG    (PAG,XDATA)
;--------------------------------------------------------
; external ram data
;--------------------------------------------------------
	.area XSEG    (XDATA)
;--------------------------------------------------------
; absolute external ram data
;--------------------------------------------------------
	.area XABS    (ABS,XDATA)
;--------------------------------------------------------
; external initialized ram data
;--------------------------------------------------------
	.area XISEG   (XDATA)
	.area HOME    (CODE)
	.area GSINIT0 (CODE)
	.area GSINIT1 (CODE)
	.area GSINIT2 (CODE)
	.area GSINIT3 (CODE)
	.area GSINIT4 (CODE)
	.area GSINIT5 (CODE)
	.area GSINIT  (CODE)
	.area GSFINAL (CODE)
	.area CSEG    (CODE)
;--------------------------------------------------------
; global & static initialisations
;--------------------------------------------------------
	.area HOME    (CODE)
	.area GSINIT  (CODE)
	.area GSFINAL (CODE)
	.area GSINIT  (CODE)
;--------------------------------------------------------
; Home
;--------------------------------------------------------
	.area HOME    (CODE)
	.area HOME    (CODE)
;--------------------------------------------------------
; code
;--------------------------------------------------------
	.area CSEG    (CODE)
;------------------------------------------------------------
;Allocation info for local variables in function 'expf'
;------------------------------------------------------------
;x                         Allocated to registers r7 r6 r5 r4 
;n                         Allocated to stack - _bp +5
;xn                        Allocated to stack - _bp +7
;g                         Allocated to stack - _bp +11
;r                         Allocated to stack - _bp +15
;z                         Allocated to stack - _bp +19
;y                         Allocated to stack - _bp +23
;sign                      Allocated to registers b0 
;sloc0                     Allocated to stack - _bp +1
;------------------------------------------------------------
;	expf.c:331: float expf(const float x)
;	-----------------------------------------
;	 function expf
;	-----------------------------------------
_expf:
	ar7 = 0x07
	ar6 = 0x06
	ar5 = 0x05
	ar4 = 0x04
	ar3 = 0x03
	ar2 = 0x02
	ar1 = 0x01
	ar0 = 0x00
	push	_bp
	mov	_bp,sp
	mov	r7,dpl
	mov	r6,dph
	mov	r5,b
	mov	r4,a
	mov	a,sp
	add	a,#0x1A
	mov	sp,a
;	expf.c:337: if(x>=0.0)
	push	ar7
	push	ar6
	push	ar5
	push	ar4
	clr	a
	push	acc
	push	acc
	push	acc
	push	acc
	mov	dpl,r7
	mov	dph,r6
	mov	b,r5
	mov	a,r4
	lcall	___fslt
	mov	r3,dpl
	mov	a,sp
	add	a,#0xfc
	mov	sp,a
	pop	ar4
	pop	ar5
	pop	ar6
	pop	ar7
	mov	a,r3
	jnz	00102$
;	expf.c:338: { y=x;  sign=0; }
	mov	a,_bp
	add	a,#0x17
	mov	r0,a
	mov	@r0,ar7
	inc	r0
	mov	@r0,ar6
	inc	r0
	mov	@r0,ar5
	inc	r0
	mov	@r0,ar4
	clr	b0
	sjmp	00103$
00102$:
;	expf.c:340: { y=-x; sign=1; }
	mov	a,r4
	cpl	acc.7
	mov	r4,a
	mov	a,_bp
	add	a,#0x17
	mov	r0,a
	mov	@r0,ar7
	inc	r0
	mov	@r0,ar6
	inc	r0
	mov	@r0,ar5
	inc	r0
	mov	@r0,ar4
	setb	b0
00103$:
;	expf.c:342: if(y<EXPEPS) return 1.0;
	push	bits
	mov	a,#0x95
	push	acc
	mov	a,#0xBF
	push	acc
	mov	a,#0xD6
	push	acc
	mov	a,#0x33
	push	acc
	mov	a,_bp
	add	a,#0x17
	mov	r0,a
	mov	dpl,@r0
	inc	r0
	mov	dph,@r0
	inc	r0
	mov	b,@r0
	inc	r0
	mov	a,@r0
	lcall	___fslt
	mov	r5,dpl
	mov	a,sp
	add	a,#0xfc
	mov	sp,a
	pop	bits
	mov	a,r5
	jz	00105$
	mov	dptr,#0x0000
	mov	b,#0x80
	mov	a,#0x3F
	ljmp	00118$
00105$:
;	expf.c:344: if(y>BIGX)
	push	bits
	mov	a,#0x18
	push	acc
	mov	a,#0x72
	push	acc
	mov	a,#0xB1
	push	acc
	mov	a,#0x42
	push	acc
	mov	a,_bp
	add	a,#0x17
	mov	r0,a
	mov	dpl,@r0
	inc	r0
	mov	dph,@r0
	inc	r0
	mov	b,@r0
	inc	r0
	mov	a,@r0
	lcall	___fsgt
	mov	r5,dpl
	mov	a,sp
	add	a,#0xfc
	mov	sp,a
	pop	bits
	mov	a,r5
	jz	00110$
;	expf.c:346: if(sign)
	jnb	b0,00107$
;	expf.c:348: errno=ERANGE;
	mov	dptr,#_errno
	mov	a,#0x22
	movx	@dptr,a
	clr	a
	inc	dptr
	movx	@dptr,a
;	expf.c:350: ;
	mov	dptr,#0xFFFF
	mov	a,#0x7F
	mov	b,a
	ljmp	00118$
00107$:
;	expf.c:354: return 0.0;
	mov	dptr,#(0x00&0x00ff)
	clr	a
	mov	b,a
	ljmp	00118$
00110$:
;	expf.c:358: z=y*K1;
	push	bits
	mov	a,_bp
	add	a,#0x17
	mov	r0,a
	mov	a,@r0
	push	acc
	inc	r0
	mov	a,@r0
	push	acc
	inc	r0
	mov	a,@r0
	push	acc
	inc	r0
	mov	a,@r0
	push	acc
	mov	dptr,#0xAA3B
	mov	b,#0xB8
	mov	a,#0x3F
	lcall	___fsmul
	mov	r7,dpl
	mov	r6,dph
	mov	r5,b
	mov	r4,a
	mov	a,sp
	add	a,#0xfc
	mov	sp,a
	pop	bits
	mov	a,_bp
	add	a,#0x13
	mov	r0,a
	mov	@r0,ar7
	inc	r0
	mov	@r0,ar6
	inc	r0
	mov	@r0,ar5
	inc	r0
	mov	@r0,ar4
;	expf.c:359: n=z;
	mov	a,_bp
	add	a,#0x13
	mov	r0,a
	mov	dpl,@r0
	inc	r0
	mov	dph,@r0
	inc	r0
	mov	b,@r0
	inc	r0
	mov	a,@r0
	push	bits
	lcall	___fs2sint
	mov	r2,dpl
	mov	r3,dph
	pop	bits
	mov	a,_bp
	add	a,#0x05
	mov	r0,a
	mov	@r0,ar2
	inc	r0
	mov	@r0,ar3
;	expf.c:361: if(n<0) --n;
	mov	a,_bp
	add	a,#0x05
	mov	r0,a
	inc	r0
	mov	a,@r0
	jnb	acc.7,00112$
	mov	a,_bp
	add	a,#0x05
	mov	r0,a
	dec	@r0
	cjne	@r0,#0xFF,00146$
	inc	r0
	dec	@r0
00146$:
00112$:
;	expf.c:362: if(z-n>=0.5) ++n;
	mov	a,_bp
	add	a,#0x05
	mov	r0,a
	mov	dpl,@r0
	inc	r0
	mov	dph,@r0
	push	bits
	lcall	___sint2fs
	mov	r4,dpl
	mov	r5,dph
	mov	r6,b
	mov	r7,a
	pop	bits
	push	bits
	push	ar4
	push	ar5
	push	ar6
	push	ar7
	mov	a,_bp
	add	a,#0x13
	mov	r0,a
	mov	dpl,@r0
	inc	r0
	mov	dph,@r0
	inc	r0
	mov	b,@r0
	inc	r0
	mov	a,@r0
	lcall	___fssub
	mov	r4,dpl
	mov	r5,dph
	mov	r6,b
	mov	r7,a
	mov	a,sp
	add	a,#0xfc
	mov	sp,a
	pop	bits
	push	bits
	clr	a
	push	acc
	push	acc
	push	acc
	mov	a,#0x3F
	push	acc
	mov	dpl,r4
	mov	dph,r5
	mov	b,r6
	mov	a,r7
	lcall	___fslt
	mov	r7,dpl
	mov	a,sp
	add	a,#0xfc
	mov	sp,a
	pop	bits
	mov	a,r7
	jnz	00114$
	mov	a,_bp
	add	a,#0x05
	mov	r0,a
	inc	@r0
	cjne	@r0,#0x00,00148$
	inc	r0
	inc	@r0
00148$:
00114$:
;	expf.c:363: xn=n;
	mov	a,_bp
	add	a,#0x05
	mov	r0,a
	mov	dpl,@r0
	inc	r0
	mov	dph,@r0
	push	bits
	lcall	___sint2fs
	mov	r4,dpl
	mov	r5,dph
	mov	r6,b
	mov	r7,a
	pop	bits
	mov	a,_bp
	add	a,#0x07
	mov	r0,a
	mov	@r0,ar4
	inc	r0
	mov	@r0,ar5
	inc	r0
	mov	@r0,ar6
	inc	r0
	mov	@r0,ar7
;	expf.c:364: g=((y-xn*C1))-xn*C2;
	push	bits
	mov	a,_bp
	add	a,#0x07
	mov	r0,a
	mov	a,@r0
	push	acc
	inc	r0
	mov	a,@r0
	push	acc
	inc	r0
	mov	a,@r0
	push	acc
	inc	r0
	mov	a,@r0
	push	acc
	mov	dptr,#0x8000
	mov	b,#0x31
	mov	a,#0x3F
	lcall	___fsmul
	mov	r4,dpl
	mov	r5,dph
	mov	r6,b
	mov	r7,a
	mov	a,sp
	add	a,#0xfc
	mov	sp,a
	pop	bits
	push	bits
	push	ar4
	push	ar5
	push	ar6
	push	ar7
	mov	a,_bp
	add	a,#0x17
	mov	r0,a
	mov	dpl,@r0
	inc	r0
	mov	dph,@r0
	inc	r0
	mov	b,@r0
	inc	r0
	mov	a,@r0
	lcall	___fssub
	mov	r0,_bp
	inc	r0
	mov	@r0,dpl
	inc	r0
	mov	@r0,dph
	inc	r0
	mov	@r0,b
	inc	r0
	mov	@r0,a
	mov	a,sp
	add	a,#0xfc
	mov	sp,a
	pop	bits
	push	bits
	mov	a,_bp
	add	a,#0x07
	mov	r0,a
	mov	a,@r0
	push	acc
	inc	r0
	mov	a,@r0
	push	acc
	inc	r0
	mov	a,@r0
	push	acc
	inc	r0
	mov	a,@r0
	push	acc
	mov	dptr,#0x8083
	mov	b,#0x5E
	mov	a,#0xB9
	lcall	___fsmul
	mov	r2,dpl
	mov	r3,dph
	mov	r6,b
	mov	r7,a
	mov	a,sp
	add	a,#0xfc
	mov	sp,a
	pop	bits
	push	bits
	push	ar2
	push	ar3
	push	ar6
	push	ar7
	mov	r0,_bp
	inc	r0
	mov	dpl,@r0
	inc	r0
	mov	dph,@r0
	inc	r0
	mov	b,@r0
	inc	r0
	mov	a,@r0
	lcall	___fssub
	mov	r4,dpl
	mov	r5,dph
	mov	r6,b
	mov	r7,a
	mov	a,sp
	add	a,#0xfc
	mov	sp,a
	pop	bits
	mov	a,_bp
	add	a,#0x0b
	mov	r0,a
	mov	@r0,ar4
	inc	r0
	mov	@r0,ar5
	inc	r0
	mov	@r0,ar6
	inc	r0
	mov	@r0,ar7
;	expf.c:365: z=g*g;
	push	bits
	mov	a,_bp
	add	a,#0x0b
	mov	r0,a
	mov	a,@r0
	push	acc
	inc	r0
	mov	a,@r0
	push	acc
	inc	r0
	mov	a,@r0
	push	acc
	inc	r0
	mov	a,@r0
	push	acc
	mov	a,_bp
	add	a,#0x0b
	mov	r0,a
	mov	dpl,@r0
	inc	r0
	mov	dph,@r0
	inc	r0
	mov	b,@r0
	inc	r0
	mov	a,@r0
	lcall	___fsmul
	mov	r2,dpl
	mov	r3,dph
	mov	r6,b
	mov	r7,a
	mov	a,sp
	add	a,#0xfc
	mov	sp,a
	pop	bits
	mov	a,_bp
	add	a,#0x13
	mov	r0,a
	mov	@r0,ar2
	inc	r0
	mov	@r0,ar3
	inc	r0
	mov	@r0,ar6
	inc	r0
	mov	@r0,ar7
;	expf.c:366: r=P(z)*g;
	push	bits
	mov	a,_bp
	add	a,#0x13
	mov	r0,a
	mov	a,@r0
	push	acc
	inc	r0
	mov	a,@r0
	push	acc
	inc	r0
	mov	a,@r0
	push	acc
	inc	r0
	mov	a,@r0
	push	acc
	mov	dptr,#0x5308
	mov	b,#0x88
	mov	a,#0x3B
	lcall	___fsmul
	mov	r4,dpl
	mov	r5,dph
	mov	r6,b
	mov	r7,a
	mov	a,sp
	add	a,#0xfc
	mov	sp,a
	pop	bits
	push	bits
	clr	a
	push	acc
	push	acc
	mov	a,#0x80
	push	acc
	mov	a,#0x3E
	push	acc
	mov	dpl,r4
	mov	dph,r5
	mov	b,r6
	mov	a,r7
	lcall	___fsadd
	mov	r4,dpl
	mov	r5,dph
	mov	r6,b
	mov	r7,a
	mov	a,sp
	add	a,#0xfc
	mov	sp,a
	pop	bits
	push	bits
	mov	a,_bp
	add	a,#0x0b
	mov	r0,a
	mov	a,@r0
	push	acc
	inc	r0
	mov	a,@r0
	push	acc
	inc	r0
	mov	a,@r0
	push	acc
	inc	r0
	mov	a,@r0
	push	acc
	mov	dpl,r4
	mov	dph,r5
	mov	b,r6
	mov	a,r7
	lcall	___fsmul
	mov	r4,dpl
	mov	r5,dph
	mov	r6,b
	mov	r7,a
	mov	a,sp
	add	a,#0xfc
	mov	sp,a
	pop	bits
	mov	a,_bp
	add	a,#0x0f
	mov	r0,a
	mov	@r0,ar4
	inc	r0
	mov	@r0,ar5
	inc	r0
	mov	@r0,ar6
	inc	r0
	mov	@r0,ar7
;	expf.c:367: r=0.5+(r/(Q(z)-r));
	push	bits
	mov	a,_bp
	add	a,#0x13
	mov	r0,a
	mov	a,@r0
	push	acc
	inc	r0
	mov	a,@r0
	push	acc
	inc	r0
	mov	a,@r0
	push	acc
	inc	r0
	mov	a,@r0
	push	acc
	mov	dptr,#0xBF5B
	mov	b,#0x4C
	mov	a,#0x3D
	lcall	___fsmul
	mov	r2,dpl
	mov	r3,dph
	mov	r6,b
	mov	r7,a
	mov	a,sp
	add	a,#0xfc
	mov	sp,a
	pop	bits
	push	bits
	clr	a
	push	acc
	push	acc
	push	acc
	mov	a,#0x3F
	push	acc
	mov	dpl,r2
	mov	dph,r3
	mov	b,r6
	mov	a,r7
	lcall	___fsadd
	mov	r4,dpl
	mov	r5,dph
	mov	r6,b
	mov	r7,a
	mov	a,sp
	add	a,#0xfc
	mov	sp,a
	pop	bits
	push	bits
	mov	a,_bp
	add	a,#0x0f
	mov	r0,a
	mov	a,@r0
	push	acc
	inc	r0
	mov	a,@r0
	push	acc
	inc	r0
	mov	a,@r0
	push	acc
	inc	r0
	mov	a,@r0
	push	acc
	mov	dpl,r4
	mov	dph,r5
	mov	b,r6
	mov	a,r7
	lcall	___fssub
	mov	r4,dpl
	mov	r5,dph
	mov	r6,b
	mov	r7,a
	mov	a,sp
	add	a,#0xfc
	mov	sp,a
	pop	bits
	push	bits
	push	ar4
	push	ar5
	push	ar6
	push	ar7
	mov	a,_bp
	add	a,#0x0f
	mov	r0,a
	mov	dpl,@r0
	inc	r0
	mov	dph,@r0
	inc	r0
	mov	b,@r0
	inc	r0
	mov	a,@r0
	lcall	___fsdiv
	mov	r4,dpl
	mov	r5,dph
	mov	r6,b
	mov	r7,a
	mov	a,sp
	add	a,#0xfc
	mov	sp,a
	pop	bits
	push	bits
	clr	a
	push	acc
	push	acc
	push	acc
	mov	a,#0x3F
	push	acc
	mov	dpl,r4
	mov	dph,r5
	mov	b,r6
	mov	a,r7
	lcall	___fsadd
	mov	r4,dpl
	mov	r5,dph
	mov	r6,b
	mov	r7,a
	mov	a,sp
	add	a,#0xfc
	mov	sp,a
	pop	bits
	mov	a,_bp
	add	a,#0x0f
	mov	r0,a
	mov	@r0,ar4
	inc	r0
	mov	@r0,ar5
	inc	r0
	mov	@r0,ar6
	inc	r0
	mov	@r0,ar7
;	expf.c:369: n++;
	mov	a,_bp
	add	a,#0x05
	mov	r0,a
	inc	@r0
	cjne	@r0,#0x00,00149$
	inc	r0
	inc	@r0
00149$:
;	expf.c:370: z=ldexpf(r, n);
	push	bits
	mov	a,_bp
	add	a,#0x05
	mov	r0,a
	mov	a,@r0
	push	acc
	inc	r0
	mov	a,@r0
	push	acc
	mov	a,_bp
	add	a,#0x0f
	mov	r0,a
	mov	dpl,@r0
	inc	r0
	mov	dph,@r0
	inc	r0
	mov	b,@r0
	inc	r0
	mov	a,@r0
	mov	r0,#_ldexpf
	mov	r1,#(_ldexpf >> 8)
	mov	r2,#(_ldexpf >> 16)
	lcall	__sdcc_banked_call
	mov	r4,dpl
	mov	r5,dph
	mov	r6,b
	mov	r7,a
	dec	sp
	dec	sp
	pop	bits
	mov	a,_bp
	add	a,#0x13
	mov	r0,a
	mov	@r0,ar4
	inc	r0
	mov	@r0,ar5
	inc	r0
	mov	@r0,ar6
	inc	r0
	mov	@r0,ar7
;	expf.c:371: if(sign)
	jnb	b0,00116$
;	expf.c:372: return 1.0/z;
	mov	a,_bp
	add	a,#0x13
	mov	r0,a
	mov	a,@r0
	push	acc
	inc	r0
	mov	a,@r0
	push	acc
	inc	r0
	mov	a,@r0
	push	acc
	inc	r0
	mov	a,@r0
	push	acc
	mov	dptr,#0x0000
	mov	b,#0x80
	mov	a,#0x3F
	lcall	___fsdiv
	mov	r4,dpl
	mov	r5,dph
	mov	r6,b
	mov	r7,a
	mov	a,sp
	add	a,#0xfc
	mov	sp,a
	mov	dpl,r4
	mov	dph,r5
	mov	b,r6
	mov	a,r7
	sjmp	00118$
00116$:
;	expf.c:374: return z;
	mov	a,_bp
	add	a,#0x13
	mov	r0,a
	mov	dpl,@r0
	inc	r0
	mov	dph,@r0
	inc	r0
	mov	b,@r0
	inc	r0
	mov	a,@r0
00118$:
	mov	sp,_bp
	pop	_bp
	ljmp	__sdcc_banked_ret
	.area CSEG    (CODE)
	.area CONST   (CODE)
	.area XINIT   (CODE)
	.area CABS    (ABS,CODE)
