;--------------------------------------------------------
; File Created by SDCC : free open source ANSI-C Compiler
; Version 3.3.1 #8898 (Nov 27 2013) (Linux)
; This file was generated Wed Nov 27 12:27:49 2013
;--------------------------------------------------------
	.module tanhf
	.optsdcc -mmcs51 --model-small
	
;--------------------------------------------------------
; Public variables in this module
;--------------------------------------------------------
	.globl _fabsf
	.globl _expf
	.globl _tanhf
;--------------------------------------------------------
; special function registers
;--------------------------------------------------------
	.area RSEG    (ABS,DATA)
	.org 0x0000
;--------------------------------------------------------
; special function bits
;--------------------------------------------------------
	.area RSEG    (ABS,DATA)
	.org 0x0000
;--------------------------------------------------------
; overlayable register banks
;--------------------------------------------------------
	.area REG_BANK_0	(REL,OVR,DATA)
	.ds 8
;--------------------------------------------------------
; internal ram data
;--------------------------------------------------------
	.area DSEG    (DATA)
;--------------------------------------------------------
; overlayable items in internal ram 
;--------------------------------------------------------
;--------------------------------------------------------
; indirectly addressable internal ram data
;--------------------------------------------------------
	.area ISEG    (DATA)
;--------------------------------------------------------
; absolute internal ram data
;--------------------------------------------------------
	.area IABS    (ABS,DATA)
	.area IABS    (ABS,DATA)
;--------------------------------------------------------
; bit data
;--------------------------------------------------------
	.area BSEG    (BIT)
;--------------------------------------------------------
; paged external ram data
;--------------------------------------------------------
	.area PSEG    (PAG,XDATA)
;--------------------------------------------------------
; external ram data
;--------------------------------------------------------
	.area XSEG    (XDATA)
;--------------------------------------------------------
; absolute external ram data
;--------------------------------------------------------
	.area XABS    (ABS,XDATA)
;--------------------------------------------------------
; external initialized ram data
;--------------------------------------------------------
	.area XISEG   (XDATA)
	.area HOME    (CODE)
	.area GSINIT0 (CODE)
	.area GSINIT1 (CODE)
	.area GSINIT2 (CODE)
	.area GSINIT3 (CODE)
	.area GSINIT4 (CODE)
	.area GSINIT5 (CODE)
	.area GSINIT  (CODE)
	.area GSFINAL (CODE)
	.area CSEG    (CODE)
;--------------------------------------------------------
; global & static initialisations
;--------------------------------------------------------
	.area HOME    (CODE)
	.area GSINIT  (CODE)
	.area GSFINAL (CODE)
	.area GSINIT  (CODE)
;--------------------------------------------------------
; Home
;--------------------------------------------------------
	.area HOME    (CODE)
	.area HOME    (CODE)
;--------------------------------------------------------
; code
;--------------------------------------------------------
	.area CSEG    (CODE)
;------------------------------------------------------------
;Allocation info for local variables in function 'tanhf'
;------------------------------------------------------------
;x                         Allocated to stack - _bp +1
;f                         Allocated to stack - _bp +9
;g                         Allocated to stack - _bp +13
;r                         Allocated to stack - _bp +17
;sloc0                     Allocated to stack - _bp +5
;------------------------------------------------------------
;	tanhf.c:50: float tanhf(const float x) _FLOAT_FUNC_REENTRANT
;	-----------------------------------------
;	 function tanhf
;	-----------------------------------------
_tanhf:
	ar7 = 0x07
	ar6 = 0x06
	ar5 = 0x05
	ar4 = 0x04
	ar3 = 0x03
	ar2 = 0x02
	ar1 = 0x01
	ar0 = 0x00
	push	_bp
	mov	_bp,sp
	push	dpl
	push	dph
	push	b
	push	acc
	mov	a,sp
	add	a,#0x10
	mov	sp,a
;	tanhf.c:54: f=fabsf(x);
	mov	r0,_bp
	inc	r0
	mov	dpl,@r0
	inc	r0
	mov	dph,@r0
	inc	r0
	mov	b,@r0
	inc	r0
	mov	a,@r0
	lcall	_fabsf
	mov	r7,dpl
	mov	r6,dph
	mov	r5,b
	mov	r4,a
	mov	a,_bp
	add	a,#0x09
	mov	r0,a
	mov	@r0,ar7
	inc	r0
	mov	@r0,ar6
	inc	r0
	mov	@r0,ar5
	inc	r0
	mov	@r0,ar4
;	tanhf.c:55: if(f>SBIG) r=1.0;
	mov	a,#0xB0
	push	acc
	mov	a,#0x2C
	push	acc
	mov	a,#0x10
	push	acc
	mov	a,#0x41
	push	acc
	mov	a,_bp
	add	a,#0x09
	mov	r0,a
	mov	dpl,@r0
	inc	r0
	mov	dph,@r0
	inc	r0
	mov	b,@r0
	inc	r0
	mov	a,@r0
	lcall	___fsgt
	mov	r5,dpl
	mov	a,sp
	add	a,#0xfc
	mov	sp,a
	mov	a,r5
	jz	00108$
	mov	a,_bp
	add	a,#0x11
	mov	r0,a
	clr	a
	mov	@r0,a
	inc	r0
	mov	@r0,a
	inc	r0
	mov	@r0,#0x80
	inc	r0
	mov	@r0,#0x3F
	ljmp	00109$
00108$:
;	tanhf.c:56: else if(f>K1)
	mov	a,#0x54
	push	acc
	mov	a,#0x9F
	push	acc
	mov	a,#0x0C
	push	acc
	mov	a,#0x3F
	push	acc
	mov	a,_bp
	add	a,#0x09
	mov	r0,a
	mov	dpl,@r0
	inc	r0
	mov	dph,@r0
	inc	r0
	mov	b,@r0
	inc	r0
	mov	a,@r0
	lcall	___fsgt
	mov	r5,dpl
	mov	a,sp
	add	a,#0xfc
	mov	sp,a
	mov	a,r5
	jnz	00127$
	ljmp	00105$
00127$:
;	tanhf.c:58: r=0.5-1.0/(expf(f+f)+1.0);
	mov	a,_bp
	add	a,#0x09
	mov	r0,a
	mov	a,@r0
	push	acc
	inc	r0
	mov	a,@r0
	push	acc
	inc	r0
	mov	a,@r0
	push	acc
	inc	r0
	mov	a,@r0
	push	acc
	mov	a,_bp
	add	a,#0x09
	mov	r0,a
	mov	dpl,@r0
	inc	r0
	mov	dph,@r0
	inc	r0
	mov	b,@r0
	inc	r0
	mov	a,@r0
	lcall	___fsadd
	mov	r7,dpl
	mov	r6,dph
	mov	r5,b
	mov	r4,a
	mov	a,sp
	add	a,#0xfc
	mov	sp,a
	mov	dpl,r7
	mov	dph,r6
	mov	b,r5
	mov	a,r4
	lcall	_expf
	mov	r7,dpl
	mov	r6,dph
	mov	r5,b
	mov	r4,a
	clr	a
	push	acc
	push	acc
	mov	a,#0x80
	push	acc
	mov	a,#0x3F
	push	acc
	mov	dpl,r7
	mov	dph,r6
	mov	b,r5
	mov	a,r4
	lcall	___fsadd
	mov	r7,dpl
	mov	r6,dph
	mov	r5,b
	mov	r4,a
	mov	a,sp
	add	a,#0xfc
	mov	sp,a
	push	ar7
	push	ar6
	push	ar5
	push	ar4
	mov	dptr,#0x0000
	mov	b,#0x80
	mov	a,#0x3F
	lcall	___fsdiv
	mov	r7,dpl
	mov	r6,dph
	mov	r5,b
	mov	r4,a
	mov	a,sp
	add	a,#0xfc
	mov	sp,a
	push	ar7
	push	ar6
	push	ar5
	push	ar4
	mov	dptr,#(0x00&0x00ff)
	clr	a
	mov	b,a
	mov	a,#0x3F
	lcall	___fssub
	mov	r7,dpl
	mov	r6,dph
	mov	r5,b
	mov	r4,a
	mov	a,sp
	add	a,#0xfc
	mov	sp,a
	mov	a,_bp
	add	a,#0x11
	mov	r0,a
	mov	@r0,ar7
	inc	r0
	mov	@r0,ar6
	inc	r0
	mov	@r0,ar5
	inc	r0
	mov	@r0,ar4
;	tanhf.c:59: r+=r;
	mov	a,_bp
	add	a,#0x11
	mov	r0,a
	mov	a,@r0
	push	acc
	inc	r0
	mov	a,@r0
	push	acc
	inc	r0
	mov	a,@r0
	push	acc
	inc	r0
	mov	a,@r0
	push	acc
	mov	a,_bp
	add	a,#0x11
	mov	r0,a
	mov	dpl,@r0
	inc	r0
	mov	dph,@r0
	inc	r0
	mov	b,@r0
	inc	r0
	mov	a,@r0
	lcall	___fsadd
	mov	r7,dpl
	mov	r6,dph
	mov	r5,b
	mov	r4,a
	mov	a,sp
	add	a,#0xfc
	mov	sp,a
	mov	a,_bp
	add	a,#0x11
	mov	r0,a
	mov	@r0,ar7
	inc	r0
	mov	@r0,ar6
	inc	r0
	mov	@r0,ar5
	inc	r0
	mov	@r0,ar4
	ljmp	00109$
00105$:
;	tanhf.c:61: else if(f<EPS) r=f;
	clr	a
	push	acc
	push	acc
	mov	a,#0x80
	push	acc
	mov	a,#0x39
	push	acc
	mov	a,_bp
	add	a,#0x09
	mov	r0,a
	mov	dpl,@r0
	inc	r0
	mov	dph,@r0
	inc	r0
	mov	b,@r0
	inc	r0
	mov	a,@r0
	lcall	___fslt
	mov	r5,dpl
	mov	a,sp
	add	a,#0xfc
	mov	sp,a
	mov	a,r5
	jz	00102$
	mov	a,_bp
	add	a,#0x09
	mov	r0,a
	mov	a,_bp
	add	a,#0x11
	mov	r1,a
	mov	a,@r0
	mov	@r1,a
	inc	r0
	inc	r1
	mov	a,@r0
	mov	@r1,a
	inc	r0
	inc	r1
	mov	a,@r0
	mov	@r1,a
	inc	r0
	inc	r1
	mov	a,@r0
	mov	@r1,a
	ljmp	00109$
00102$:
;	tanhf.c:64: g=f*f;
	mov	a,_bp
	add	a,#0x09
	mov	r0,a
	mov	a,@r0
	push	acc
	inc	r0
	mov	a,@r0
	push	acc
	inc	r0
	mov	a,@r0
	push	acc
	inc	r0
	mov	a,@r0
	push	acc
	mov	a,_bp
	add	a,#0x09
	mov	r0,a
	mov	dpl,@r0
	inc	r0
	mov	dph,@r0
	inc	r0
	mov	b,@r0
	inc	r0
	mov	a,@r0
	lcall	___fsmul
	mov	r7,dpl
	mov	r6,dph
	mov	r5,b
	mov	r4,a
	mov	a,sp
	add	a,#0xfc
	mov	sp,a
	mov	a,_bp
	add	a,#0x0d
	mov	r0,a
	mov	@r0,ar7
	inc	r0
	mov	@r0,ar6
	inc	r0
	mov	@r0,ar5
	inc	r0
	mov	@r0,ar4
;	tanhf.c:65: r=f+f*(P(g)/Q(g));
	mov	a,_bp
	add	a,#0x0d
	mov	r0,a
	mov	a,@r0
	push	acc
	inc	r0
	mov	a,@r0
	push	acc
	inc	r0
	mov	a,@r0
	push	acc
	inc	r0
	mov	a,@r0
	push	acc
	mov	dptr,#0x11B2
	mov	b,#0x7B
	mov	a,#0xBB
	lcall	___fsmul
	mov	r4,dpl
	mov	r5,dph
	mov	r6,b
	mov	r7,a
	mov	a,sp
	add	a,#0xfc
	mov	sp,a
	mov	a,#0xC6
	push	acc
	mov	a,#0xE2
	push	acc
	mov	a,#0x52
	push	acc
	mov	a,#0xBF
	push	acc
	mov	dpl,r4
	mov	dph,r5
	mov	b,r6
	mov	a,r7
	lcall	___fsadd
	mov	r4,dpl
	mov	r5,dph
	mov	r6,b
	mov	r7,a
	mov	a,sp
	add	a,#0xfc
	mov	sp,a
	mov	a,_bp
	add	a,#0x0d
	mov	r0,a
	mov	a,@r0
	push	acc
	inc	r0
	mov	a,@r0
	push	acc
	inc	r0
	mov	a,@r0
	push	acc
	inc	r0
	mov	a,@r0
	push	acc
	mov	dpl,r4
	mov	dph,r5
	mov	b,r6
	mov	a,r7
	lcall	___fsmul
	xch	a,r0
	mov	a,_bp
	add	a,#0x05
	xch	a,r0
	mov	@r0,dpl
	inc	r0
	mov	@r0,dph
	inc	r0
	mov	@r0,b
	inc	r0
	mov	@r0,a
	mov	a,sp
	add	a,#0xfc
	mov	sp,a
	mov	a,#0x1A
	push	acc
	mov	a,#0x2A
	push	acc
	mov	a,#0x1E
	push	acc
	mov	a,#0x40
	push	acc
	mov	a,_bp
	add	a,#0x0d
	mov	r0,a
	mov	dpl,@r0
	inc	r0
	mov	dph,@r0
	inc	r0
	mov	b,@r0
	inc	r0
	mov	a,@r0
	lcall	___fsadd
	mov	r2,dpl
	mov	r3,dph
	mov	r6,b
	mov	r7,a
	mov	a,sp
	add	a,#0xfc
	mov	sp,a
	push	ar2
	push	ar3
	push	ar6
	push	ar7
	mov	a,_bp
	add	a,#0x05
	mov	r0,a
	mov	dpl,@r0
	inc	r0
	mov	dph,@r0
	inc	r0
	mov	b,@r0
	inc	r0
	mov	a,@r0
	lcall	___fsdiv
	mov	r4,dpl
	mov	r5,dph
	mov	r6,b
	mov	r7,a
	mov	a,sp
	add	a,#0xfc
	mov	sp,a
	push	ar4
	push	ar5
	push	ar6
	push	ar7
	mov	a,_bp
	add	a,#0x09
	mov	r0,a
	mov	dpl,@r0
	inc	r0
	mov	dph,@r0
	inc	r0
	mov	b,@r0
	inc	r0
	mov	a,@r0
	lcall	___fsmul
	mov	r4,dpl
	mov	r5,dph
	mov	r6,b
	mov	r7,a
	mov	a,sp
	add	a,#0xfc
	mov	sp,a
	push	ar4
	push	ar5
	push	ar6
	push	ar7
	mov	a,_bp
	add	a,#0x09
	mov	r0,a
	mov	dpl,@r0
	inc	r0
	mov	dph,@r0
	inc	r0
	mov	b,@r0
	inc	r0
	mov	a,@r0
	lcall	___fsadd
	mov	r4,dpl
	mov	r5,dph
	mov	r6,b
	mov	r7,a
	mov	a,sp
	add	a,#0xfc
	mov	sp,a
	mov	a,_bp
	add	a,#0x11
	mov	r0,a
	mov	@r0,ar4
	inc	r0
	mov	@r0,ar5
	inc	r0
	mov	@r0,ar6
	inc	r0
	mov	@r0,ar7
00109$:
;	tanhf.c:67: if(x<0.0) r=-r;
	clr	a
	push	acc
	push	acc
	push	acc
	push	acc
	mov	r0,_bp
	inc	r0
	mov	dpl,@r0
	inc	r0
	mov	dph,@r0
	inc	r0
	mov	b,@r0
	inc	r0
	mov	a,@r0
	lcall	___fslt
	mov	r7,dpl
	mov	a,sp
	add	a,#0xfc
	mov	sp,a
	mov	a,r7
	jz	00111$
	mov	a,_bp
	add	a,#0x11
	mov	r0,a
	mov	a,@r0
	mov	@r0,a
	inc	r0
	mov	a,@r0
	mov	@r0,a
	inc	r0
	mov	a,@r0
	mov	@r0,a
	inc	r0
	mov	a,@r0
	cpl	acc.7
	mov	@r0,a
00111$:
;	tanhf.c:68: return r;
	mov	a,_bp
	add	a,#0x11
	mov	r0,a
	mov	dpl,@r0
	inc	r0
	mov	dph,@r0
	inc	r0
	mov	b,@r0
	inc	r0
	mov	a,@r0
	mov	sp,_bp
	pop	_bp
	ret
	.area CSEG    (CODE)
	.area CONST   (CODE)
	.area XINIT   (CODE)
	.area CABS    (ABS,CODE)
