                                      1 ;--------------------------------------------------------
                                      2 ; File Created by SDCC : free open source ANSI-C Compiler
                                      3 ; Version 3.3.1 #8898 (Nov 27 2013) (Linux)
                                      4 ; This file was generated Wed Nov 27 12:27:52 2013
                                      5 ;--------------------------------------------------------
                                      6 	.module _fsmul
                                      7 	.optsdcc -mmcs51 --model-medium
                                      8 	
                                      9 ;--------------------------------------------------------
                                     10 ; Public variables in this module
                                     11 ;--------------------------------------------------------
                                     12 ;--------------------------------------------------------
                                     13 ; special function registers
                                     14 ;--------------------------------------------------------
                                     15 	.area RSEG    (ABS,DATA)
      000000                         16 	.org 0x0000
                                     17 ;--------------------------------------------------------
                                     18 ; special function bits
                                     19 ;--------------------------------------------------------
                                     20 	.area RSEG    (ABS,DATA)
      000000                         21 	.org 0x0000
                                     22 ;--------------------------------------------------------
                                     23 ; overlayable register banks
                                     24 ;--------------------------------------------------------
                                     25 	.area REG_BANK_0	(REL,OVR,DATA)
      000000                         26 	.ds 8
                                     27 ;--------------------------------------------------------
                                     28 ; internal ram data
                                     29 ;--------------------------------------------------------
                                     30 	.area DSEG    (DATA)
                                     31 ;--------------------------------------------------------
                                     32 ; overlayable items in internal ram 
                                     33 ;--------------------------------------------------------
                                     34 ;--------------------------------------------------------
                                     35 ; indirectly addressable internal ram data
                                     36 ;--------------------------------------------------------
                                     37 	.area ISEG    (DATA)
                                     38 ;--------------------------------------------------------
                                     39 ; absolute internal ram data
                                     40 ;--------------------------------------------------------
                                     41 	.area IABS    (ABS,DATA)
                                     42 	.area IABS    (ABS,DATA)
                                     43 ;--------------------------------------------------------
                                     44 ; bit data
                                     45 ;--------------------------------------------------------
                                     46 	.area BSEG    (BIT)
                                     47 ;--------------------------------------------------------
                                     48 ; paged external ram data
                                     49 ;--------------------------------------------------------
                                     50 	.area PSEG    (PAG,XDATA)
                                     51 ;--------------------------------------------------------
                                     52 ; external ram data
                                     53 ;--------------------------------------------------------
                                     54 	.area XSEG    (XDATA)
                                     55 ;--------------------------------------------------------
                                     56 ; absolute external ram data
                                     57 ;--------------------------------------------------------
                                     58 	.area XABS    (ABS,XDATA)
                                     59 ;--------------------------------------------------------
                                     60 ; external initialized ram data
                                     61 ;--------------------------------------------------------
                                     62 	.area XISEG   (XDATA)
                                     63 	.area HOME    (CODE)
                                     64 	.area GSINIT0 (CODE)
                                     65 	.area GSINIT1 (CODE)
                                     66 	.area GSINIT2 (CODE)
                                     67 	.area GSINIT3 (CODE)
                                     68 	.area GSINIT4 (CODE)
                                     69 	.area GSINIT5 (CODE)
                                     70 	.area GSINIT  (CODE)
                                     71 	.area GSFINAL (CODE)
                                     72 	.area CSEG    (CODE)
                                     73 ;--------------------------------------------------------
                                     74 ; global & static initialisations
                                     75 ;--------------------------------------------------------
                                     76 	.area HOME    (CODE)
                                     77 	.area GSINIT  (CODE)
                                     78 	.area GSFINAL (CODE)
                                     79 	.area GSINIT  (CODE)
                                     80 ;--------------------------------------------------------
                                     81 ; Home
                                     82 ;--------------------------------------------------------
                                     83 	.area HOME    (CODE)
                                     84 	.area HOME    (CODE)
                                     85 ;--------------------------------------------------------
                                     86 ; code
                                     87 ;--------------------------------------------------------
                                     88 	.area CSEG    (CODE)
                                     89 ;------------------------------------------------------------
                                     90 ;Allocation info for local variables in function 'dummy'
                                     91 ;------------------------------------------------------------
                                     92 ;	_fsmul.c:37: static void dummy(void) __naked
                                     93 ;	-----------------------------------------
                                     94 ;	 function dummy
                                     95 ;	-----------------------------------------
      000000                         96 _dummy:
                                     97 ;	naked function: no prologue.
                                     98 ;	_fsmul.c:211: __endasm;
                                     99 	.globl ___fsmul
      000000                        100 	___fsmul:
      000000 12r00r00         [24]  101 	lcall fsgetargs
      000003 BC 00 03         [24]  102 	cjne r4, #0, 00002$
      000006                        103 	00001$:
      000006 02r00r00         [24]  104 	ljmp fs_return_zero
      000009                        105 	00002$:
      000009 EF               [12]  106 	mov a, r7
      00000A 60 FA            [24]  107 	jz 00001$
      00000C 30 D5 02         [24]  108 	jnb psw.5, 00003$
      00000F B2 D1            [12]  109 	cpl psw.1
      000011                        110 	00003$:
      000011 E5 83            [12]  111 	mov a, dph
      000013 B4 FF 03         [24]  112 	cjne a, #0xFF, 00004$
      000016 02r00r00         [24]  113 	ljmp fs_return_inf
      000019                        114 	00004$:
      000019 E5 82            [12]  115 	mov a, dpl
      00001B B4 FF 03         [24]  116 	cjne a, #0xFF, 00005$
      00001E 02r00r00         [24]  117 	ljmp fs_return_inf
      000021                        118 	00005$:
      000021 25 83            [12]  119 	add a, dph
      000023 40 07            [24]  120 	jc 00006$
      000025 24 82            [12]  121 	add a, #130
      000027 40 0B            [24]  122 	jc 00007$
      000029 02r00r00         [24]  123 	ljmp fs_return_zero
      00002C                        124 	00006$:
      00002C 24 83            [12]  125 	add a, #131
      00002E 14               [12]  126 	dec a
      00002F 50 03            [24]  127 	jnc 00007$
      000031 02r00r00         [24]  128 	ljmp fs_return_inf
      000034                        129 	00007$:
      000034 F5 82            [12]  130 	mov dpl, a
      000036 EA               [12]  131 	mov a, r2
      000037 8D F0            [24]  132 	mov b, r5
      000039 A4               [48]  133 	mul ab
      00003A A8 F0            [24]  134 	mov r0, b
      00003C EA               [12]  135 	mov a, r2
      00003D 8E F0            [24]  136 	mov b, r6
      00003F A4               [48]  137 	mul ab
      000040 28               [12]  138 	add a, r0
      000041 F8               [12]  139 	mov r0, a
      000042 E4               [12]  140 	clr a
      000043 35 F0            [12]  141 	addc a, b
      000045 F9               [12]  142 	mov r1, a
      000046 EB               [12]  143 	mov a, r3
      000047 8D F0            [24]  144 	mov b, r5
      000049 A4               [48]  145 	mul ab
      00004A 28               [12]  146 	add a, r0
      00004B E9               [12]  147 	mov a, r1
      00004C 35 F0            [12]  148 	addc a, b
      00004E F9               [12]  149 	mov r1, a
      00004F E4               [12]  150 	clr a
      000050 33               [12]  151 	rlc a
      000051 CA               [12]  152 	xch a, r2
      000052 8F F0            [24]  153 	mov b, r7
      000054 A4               [48]  154 	mul ab
      000055 29               [12]  155 	add a, r1
      000056 F9               [12]  156 	mov r1, a
      000057 EA               [12]  157 	mov a, r2
      000058 35 F0            [12]  158 	addc a, b
      00005A FA               [12]  159 	mov r2, a
      00005B EB               [12]  160 	mov a, r3
      00005C F8               [12]  161 	mov r0, a
      00005D 8E F0            [24]  162 	mov b, r6
      00005F A4               [48]  163 	mul ab
      000060 29               [12]  164 	add a, r1
      000061 F9               [12]  165 	mov r1, a
      000062 EA               [12]  166 	mov a, r2
      000063 35 F0            [12]  167 	addc a, b
      000065 FA               [12]  168 	mov r2, a
      000066 E4               [12]  169 	clr a
      000067 33               [12]  170 	rlc a
      000068 FB               [12]  171 	mov r3, a
      000069 EC               [12]  172 	mov a, r4
      00006A 8D F0            [24]  173 	mov b, r5
      00006C A4               [48]  174 	mul ab
      00006D 29               [12]  175 	add a, r1
      00006E F9               [12]  176 	mov r1, a
      00006F EA               [12]  177 	mov a, r2
      000070 35 F0            [12]  178 	addc a, b
      000072 FA               [12]  179 	mov r2, a
      000073 E4               [12]  180 	clr a
      000074 3B               [12]  181 	addc a, r3
      000075 FB               [12]  182 	mov r3, a
      000076 E8               [12]  183 	mov a, r0
      000077 8F F0            [24]  184 	mov b, r7
      000079 A4               [48]  185 	mul ab
      00007A 2A               [12]  186 	add a, r2
      00007B FA               [12]  187 	mov r2, a
      00007C EB               [12]  188 	mov a, r3
      00007D 35 F0            [12]  189 	addc a, b
      00007F FB               [12]  190 	mov r3, a
      000080 E4               [12]  191 	clr a
      000081 33               [12]  192 	rlc a
      000082 CC               [12]  193 	xch a, r4
      000083 FD               [12]  194 	mov r5, a
      000084 8E F0            [24]  195 	mov b, r6
      000086 A4               [48]  196 	mul ab
      000087 2A               [12]  197 	add a, r2
      000088 FA               [12]  198 	mov r2, a
      000089 EB               [12]  199 	mov a, r3
      00008A 35 F0            [12]  200 	addc a, b
      00008C FB               [12]  201 	mov r3, a
      00008D E4               [12]  202 	clr a
      00008E 3C               [12]  203 	addc a, r4
      00008F FC               [12]  204 	mov r4, a
      000090 ED               [12]  205 	mov a, r5
      000091 8F F0            [24]  206 	mov b, r7
      000093 A4               [48]  207 	mul ab
      000094 2B               [12]  208 	add a, r3
      000095 FB               [12]  209 	mov r3, a
      000096 EC               [12]  210 	mov a, r4
      000097 35 F0            [12]  211 	addc a, b
      000099 FC               [12]  212 	mov r4, a
      00009A 20 E7 03         [24]  213 	jb acc.7, 00010$
      00009D 12r00r00         [24]  214 	lcall fs_normalize_a
      0000A0                        215 	00010$:
      0000A0 02r00r00         [24]  216 	ljmp fs_round_and_return
                                    217 ;	naked function: no epilogue.
                                    218 	.area CSEG    (CODE)
                                    219 	.area CONST   (CODE)
                                    220 	.area XINIT   (CODE)
                                    221 	.area CABS    (ABS,CODE)
