                                      1 ;--------------------------------------------------------
                                      2 ; File Created by SDCC : free open source ANSI-C Compiler
                                      3 ; Version 3.3.1 #8898 (Nov 27 2013) (Linux)
                                      4 ; This file was generated Wed Nov 27 12:27:53 2013
                                      5 ;--------------------------------------------------------
                                      6 	.module _strncmp
                                      7 	.optsdcc -mmcs51 --model-medium
                                      8 	
                                      9 ;--------------------------------------------------------
                                     10 ; Public variables in this module
                                     11 ;--------------------------------------------------------
                                     12 	.globl _strncmp_PARM_3
                                     13 	.globl _strncmp_PARM_2
                                     14 	.globl _strncmp
                                     15 ;--------------------------------------------------------
                                     16 ; special function registers
                                     17 ;--------------------------------------------------------
                                     18 	.area RSEG    (ABS,DATA)
      000000                         19 	.org 0x0000
                                     20 ;--------------------------------------------------------
                                     21 ; special function bits
                                     22 ;--------------------------------------------------------
                                     23 	.area RSEG    (ABS,DATA)
      000000                         24 	.org 0x0000
                                     25 ;--------------------------------------------------------
                                     26 ; overlayable register banks
                                     27 ;--------------------------------------------------------
                                     28 	.area REG_BANK_0	(REL,OVR,DATA)
      000000                         29 	.ds 8
                                     30 ;--------------------------------------------------------
                                     31 ; internal ram data
                                     32 ;--------------------------------------------------------
                                     33 	.area DSEG    (DATA)
                                     34 ;--------------------------------------------------------
                                     35 ; overlayable items in internal ram 
                                     36 ;--------------------------------------------------------
                                     37 	.area	OSEG    (OVR,DATA)
      000000                         38 _strncmp_sloc0_1_0:
      000000                         39 	.ds 2
      000002                         40 _strncmp_sloc1_1_0:
      000002                         41 	.ds 1
                                     42 ;--------------------------------------------------------
                                     43 ; indirectly addressable internal ram data
                                     44 ;--------------------------------------------------------
                                     45 	.area ISEG    (DATA)
                                     46 ;--------------------------------------------------------
                                     47 ; absolute internal ram data
                                     48 ;--------------------------------------------------------
                                     49 	.area IABS    (ABS,DATA)
                                     50 	.area IABS    (ABS,DATA)
                                     51 ;--------------------------------------------------------
                                     52 ; bit data
                                     53 ;--------------------------------------------------------
                                     54 	.area BSEG    (BIT)
                                     55 ;--------------------------------------------------------
                                     56 ; paged external ram data
                                     57 ;--------------------------------------------------------
                                     58 	.area PSEG    (PAG,XDATA)
      000000                         59 _strncmp_PARM_2:
      000000                         60 	.ds 3
      000003                         61 _strncmp_PARM_3:
      000003                         62 	.ds 2
                                     63 ;--------------------------------------------------------
                                     64 ; external ram data
                                     65 ;--------------------------------------------------------
                                     66 	.area XSEG    (XDATA)
                                     67 ;--------------------------------------------------------
                                     68 ; absolute external ram data
                                     69 ;--------------------------------------------------------
                                     70 	.area XABS    (ABS,XDATA)
                                     71 ;--------------------------------------------------------
                                     72 ; external initialized ram data
                                     73 ;--------------------------------------------------------
                                     74 	.area XISEG   (XDATA)
                                     75 	.area HOME    (CODE)
                                     76 	.area GSINIT0 (CODE)
                                     77 	.area GSINIT1 (CODE)
                                     78 	.area GSINIT2 (CODE)
                                     79 	.area GSINIT3 (CODE)
                                     80 	.area GSINIT4 (CODE)
                                     81 	.area GSINIT5 (CODE)
                                     82 	.area GSINIT  (CODE)
                                     83 	.area GSFINAL (CODE)
                                     84 	.area CSEG    (CODE)
                                     85 ;--------------------------------------------------------
                                     86 ; global & static initialisations
                                     87 ;--------------------------------------------------------
                                     88 	.area HOME    (CODE)
                                     89 	.area GSINIT  (CODE)
                                     90 	.area GSFINAL (CODE)
                                     91 	.area GSINIT  (CODE)
                                     92 ;--------------------------------------------------------
                                     93 ; Home
                                     94 ;--------------------------------------------------------
                                     95 	.area HOME    (CODE)
                                     96 	.area HOME    (CODE)
                                     97 ;--------------------------------------------------------
                                     98 ; code
                                     99 ;--------------------------------------------------------
                                    100 	.area CSEG    (CODE)
                                    101 ;------------------------------------------------------------
                                    102 ;Allocation info for local variables in function 'strncmp'
                                    103 ;------------------------------------------------------------
                                    104 ;sloc0                     Allocated with name '_strncmp_sloc0_1_0'
                                    105 ;sloc1                     Allocated with name '_strncmp_sloc1_1_0'
                                    106 ;------------------------------------------------------------
                                    107 ;	_strncmp.c:31: int strncmp (
                                    108 ;	-----------------------------------------
                                    109 ;	 function strncmp
                                    110 ;	-----------------------------------------
      000000                        111 _strncmp:
                           000007   112 	ar7 = 0x07
                           000006   113 	ar6 = 0x06
                           000005   114 	ar5 = 0x05
                           000004   115 	ar4 = 0x04
                           000003   116 	ar3 = 0x03
                           000002   117 	ar2 = 0x02
                           000001   118 	ar1 = 0x01
                           000000   119 	ar0 = 0x00
      000000 AD 82            [24]  120 	mov	r5,dpl
      000002 AE 83            [24]  121 	mov	r6,dph
      000004 AF F0            [24]  122 	mov	r7,b
                                    123 ;	_strncmp.c:37: if (!count)
      000006 78r03            [12]  124 	mov	r0,#_strncmp_PARM_3
      000008 E2               [24]  125 	movx	a,@r0
      000009 F5 F0            [12]  126 	mov	b,a
      00000B 08               [12]  127 	inc	r0
      00000C E2               [24]  128 	movx	a,@r0
      00000D 45 F0            [12]  129 	orl	a,b
      00000F 70 04            [24]  130 	jnz	00114$
                                    131 ;	_strncmp.c:38: return(0);
      000011 90 00 00         [24]  132 	mov	dptr,#0x0000
      000014 22               [24]  133 	ret
                                    134 ;	_strncmp.c:40: while (--count && *first && *first == *last) {
      000015                        135 00114$:
      000015 78r00            [12]  136 	mov	r0,#_strncmp_PARM_2
      000017 E2               [24]  137 	movx	a,@r0
      000018 FA               [12]  138 	mov	r2,a
      000019 08               [12]  139 	inc	r0
      00001A E2               [24]  140 	movx	a,@r0
      00001B FB               [12]  141 	mov	r3,a
      00001C 08               [12]  142 	inc	r0
      00001D E2               [24]  143 	movx	a,@r0
      00001E FC               [12]  144 	mov	r4,a
      00001F 78r03            [12]  145 	mov	r0,#_strncmp_PARM_3
      000021 E2               [24]  146 	movx	a,@r0
      000022 F5*00            [12]  147 	mov	_strncmp_sloc0_1_0,a
      000024 08               [12]  148 	inc	r0
      000025 E2               [24]  149 	movx	a,@r0
      000026 F5*01            [12]  150 	mov	(_strncmp_sloc0_1_0 + 1),a
      000028                        151 00105$:
      000028 15*00            [12]  152 	dec	_strncmp_sloc0_1_0
      00002A 74 FF            [12]  153 	mov	a,#0xFF
      00002C B5*00 02         [24]  154 	cjne	a,_strncmp_sloc0_1_0,00127$
      00002F 15*01            [12]  155 	dec	(_strncmp_sloc0_1_0 + 1)
      000031                        156 00127$:
      000031 E5*00            [12]  157 	mov	a,_strncmp_sloc0_1_0
      000033 45*01            [12]  158 	orl	a,(_strncmp_sloc0_1_0 + 1)
      000035 60 3C            [24]  159 	jz	00107$
      000037 8D 82            [24]  160 	mov	dpl,r5
      000039 8E 83            [24]  161 	mov	dph,r6
      00003B 8F F0            [24]  162 	mov	b,r7
      00003D 12r00r00         [24]  163 	lcall	__gptrget
      000040 F5*02            [12]  164 	mov	_strncmp_sloc1_1_0,a
      000042 60 2F            [24]  165 	jz	00107$
      000044 C0 05            [24]  166 	push	ar5
      000046 C0 06            [24]  167 	push	ar6
      000048 C0 07            [24]  168 	push	ar7
      00004A 8A 82            [24]  169 	mov	dpl,r2
      00004C 8B 83            [24]  170 	mov	dph,r3
      00004E 8C F0            [24]  171 	mov	b,r4
      000050 12r00r00         [24]  172 	lcall	__gptrget
      000053 FF               [12]  173 	mov	r7,a
      000054 B5*02 02         [24]  174 	cjne	a,_strncmp_sloc1_1_0,00130$
      000057 80 08            [24]  175 	sjmp	00131$
      000059                        176 00130$:
      000059 D0 07            [24]  177 	pop	ar7
      00005B D0 06            [24]  178 	pop	ar6
      00005D D0 05            [24]  179 	pop	ar5
      00005F 80 12            [24]  180 	sjmp	00107$
      000061                        181 00131$:
      000061 D0 07            [24]  182 	pop	ar7
      000063 D0 06            [24]  183 	pop	ar6
      000065 D0 05            [24]  184 	pop	ar5
                                    185 ;	_strncmp.c:41: first++;
      000067 0D               [12]  186 	inc	r5
      000068 BD 00 01         [24]  187 	cjne	r5,#0x00,00132$
      00006B 0E               [12]  188 	inc	r6
      00006C                        189 00132$:
                                    190 ;	_strncmp.c:42: last++;
      00006C 0A               [12]  191 	inc	r2
      00006D BA 00 B8         [24]  192 	cjne	r2,#0x00,00105$
      000070 0B               [12]  193 	inc	r3
      000071 80 B5            [24]  194 	sjmp	00105$
      000073                        195 00107$:
                                    196 ;	_strncmp.c:45: return( *first - *last );
      000073 8D 82            [24]  197 	mov	dpl,r5
      000075 8E 83            [24]  198 	mov	dph,r6
      000077 8F F0            [24]  199 	mov	b,r7
      000079 12r00r00         [24]  200 	lcall	__gptrget
      00007C FD               [12]  201 	mov	r5,a
      00007D 33               [12]  202 	rlc	a
      00007E 95 E0            [12]  203 	subb	a,acc
      000080 FF               [12]  204 	mov	r7,a
      000081 8A 82            [24]  205 	mov	dpl,r2
      000083 8B 83            [24]  206 	mov	dph,r3
      000085 8C F0            [24]  207 	mov	b,r4
      000087 12r00r00         [24]  208 	lcall	__gptrget
      00008A FA               [12]  209 	mov	r2,a
      00008B 33               [12]  210 	rlc	a
      00008C 95 E0            [12]  211 	subb	a,acc
      00008E FE               [12]  212 	mov	r6,a
      00008F ED               [12]  213 	mov	a,r5
      000090 C3               [12]  214 	clr	c
      000091 9A               [12]  215 	subb	a,r2
      000092 F5 82            [12]  216 	mov	dpl,a
      000094 EF               [12]  217 	mov	a,r7
      000095 9E               [12]  218 	subb	a,r6
      000096 F5 83            [12]  219 	mov	dph,a
      000098 22               [24]  220 	ret
                                    221 	.area CSEG    (CODE)
                                    222 	.area CONST   (CODE)
                                    223 	.area XINIT   (CODE)
                                    224 	.area CABS    (ABS,CODE)
