                                      1 ;--------------------------------------------------------
                                      2 ; File Created by SDCC : free open source ANSI-C Compiler
                                      3 ; Version 3.3.1 #8898 (Nov 27 2013) (Linux)
                                      4 ; This file was generated Wed Nov 27 12:27:52 2013
                                      5 ;--------------------------------------------------------
                                      6 	.module atan2f
                                      7 	.optsdcc -mmcs51 --model-medium
                                      8 	
                                      9 ;--------------------------------------------------------
                                     10 ; Public variables in this module
                                     11 ;--------------------------------------------------------
                                     12 	.globl _fabsf
                                     13 	.globl _atanf
                                     14 	.globl _atan2f_PARM_2
                                     15 	.globl _atan2f
                                     16 ;--------------------------------------------------------
                                     17 ; special function registers
                                     18 ;--------------------------------------------------------
                                     19 	.area RSEG    (ABS,DATA)
      000000                         20 	.org 0x0000
                                     21 ;--------------------------------------------------------
                                     22 ; special function bits
                                     23 ;--------------------------------------------------------
                                     24 	.area RSEG    (ABS,DATA)
      000000                         25 	.org 0x0000
                                     26 ;--------------------------------------------------------
                                     27 ; overlayable register banks
                                     28 ;--------------------------------------------------------
                                     29 	.area REG_BANK_0	(REL,OVR,DATA)
      000000                         30 	.ds 8
                                     31 ;--------------------------------------------------------
                                     32 ; internal ram data
                                     33 ;--------------------------------------------------------
                                     34 	.area DSEG    (DATA)
      000000                         35 _atan2f_sloc0_1_0:
      000000                         36 	.ds 4
                                     37 ;--------------------------------------------------------
                                     38 ; overlayable items in internal ram 
                                     39 ;--------------------------------------------------------
                                     40 ;--------------------------------------------------------
                                     41 ; indirectly addressable internal ram data
                                     42 ;--------------------------------------------------------
                                     43 	.area ISEG    (DATA)
                                     44 ;--------------------------------------------------------
                                     45 ; absolute internal ram data
                                     46 ;--------------------------------------------------------
                                     47 	.area IABS    (ABS,DATA)
                                     48 	.area IABS    (ABS,DATA)
                                     49 ;--------------------------------------------------------
                                     50 ; bit data
                                     51 ;--------------------------------------------------------
                                     52 	.area BSEG    (BIT)
                                     53 ;--------------------------------------------------------
                                     54 ; paged external ram data
                                     55 ;--------------------------------------------------------
                                     56 	.area PSEG    (PAG,XDATA)
      000000                         57 _atan2f_PARM_2:
      000000                         58 	.ds 4
      000004                         59 _atan2f_x_1_23:
      000004                         60 	.ds 4
      000008                         61 _atan2f_r_1_24:
      000008                         62 	.ds 4
                                     63 ;--------------------------------------------------------
                                     64 ; external ram data
                                     65 ;--------------------------------------------------------
                                     66 	.area XSEG    (XDATA)
                                     67 ;--------------------------------------------------------
                                     68 ; absolute external ram data
                                     69 ;--------------------------------------------------------
                                     70 	.area XABS    (ABS,XDATA)
                                     71 ;--------------------------------------------------------
                                     72 ; external initialized ram data
                                     73 ;--------------------------------------------------------
                                     74 	.area XISEG   (XDATA)
                                     75 	.area HOME    (CODE)
                                     76 	.area GSINIT0 (CODE)
                                     77 	.area GSINIT1 (CODE)
                                     78 	.area GSINIT2 (CODE)
                                     79 	.area GSINIT3 (CODE)
                                     80 	.area GSINIT4 (CODE)
                                     81 	.area GSINIT5 (CODE)
                                     82 	.area GSINIT  (CODE)
                                     83 	.area GSFINAL (CODE)
                                     84 	.area CSEG    (CODE)
                                     85 ;--------------------------------------------------------
                                     86 ; global & static initialisations
                                     87 ;--------------------------------------------------------
                                     88 	.area HOME    (CODE)
                                     89 	.area GSINIT  (CODE)
                                     90 	.area GSFINAL (CODE)
                                     91 	.area GSINIT  (CODE)
                                     92 ;--------------------------------------------------------
                                     93 ; Home
                                     94 ;--------------------------------------------------------
                                     95 	.area HOME    (CODE)
                                     96 	.area HOME    (CODE)
                                     97 ;--------------------------------------------------------
                                     98 ; code
                                     99 ;--------------------------------------------------------
                                    100 	.area CSEG    (CODE)
                                    101 ;------------------------------------------------------------
                                    102 ;Allocation info for local variables in function 'atan2f'
                                    103 ;------------------------------------------------------------
                                    104 ;sloc0                     Allocated with name '_atan2f_sloc0_1_0'
                                    105 ;------------------------------------------------------------
                                    106 ;	atan2f.c:34: float atan2f(const float x, const float y)
                                    107 ;	-----------------------------------------
                                    108 ;	 function atan2f
                                    109 ;	-----------------------------------------
      000000                        110 _atan2f:
                           000007   111 	ar7 = 0x07
                           000006   112 	ar6 = 0x06
                           000005   113 	ar5 = 0x05
                           000004   114 	ar4 = 0x04
                           000003   115 	ar3 = 0x03
                           000002   116 	ar2 = 0x02
                           000001   117 	ar1 = 0x01
                           000000   118 	ar0 = 0x00
      000000 AF 82            [24]  119 	mov	r7,dpl
      000002 AE 83            [24]  120 	mov	r6,dph
      000004 AD F0            [24]  121 	mov	r5,b
      000006 FC               [12]  122 	mov	r4,a
      000007 78r04            [12]  123 	mov	r0,#_atan2f_x_1_23
      000009 EF               [12]  124 	mov	a,r7
      00000A F2               [24]  125 	movx	@r0,a
      00000B 08               [12]  126 	inc	r0
      00000C EE               [12]  127 	mov	a,r6
      00000D F2               [24]  128 	movx	@r0,a
      00000E 08               [12]  129 	inc	r0
      00000F ED               [12]  130 	mov	a,r5
      000010 F2               [24]  131 	movx	@r0,a
      000011 08               [12]  132 	inc	r0
      000012 EC               [12]  133 	mov	a,r4
      000013 F2               [24]  134 	movx	@r0,a
                                    135 ;	atan2f.c:38: if ((x==0.0) && (y==0.0))
      000014 78r04            [12]  136 	mov	r0,#_atan2f_x_1_23
      000016 E2               [24]  137 	movx	a,@r0
      000017 F5 F0            [12]  138 	mov	b,a
      000019 08               [12]  139 	inc	r0
      00001A E2               [24]  140 	movx	a,@r0
      00001B 42 F0            [12]  141 	orl	b,a
      00001D 08               [12]  142 	inc	r0
      00001E E2               [24]  143 	movx	a,@r0
      00001F 42 F0            [12]  144 	orl	b,a
      000021 08               [12]  145 	inc	r0
      000022 E2               [24]  146 	movx	a,@r0
      000023 54 7F            [12]  147 	anl	a,#0x7F
      000025 45 F0            [12]  148 	orl	a,b
      000027 70 24            [24]  149 	jnz	00102$
      000029 78r00            [12]  150 	mov	r0,#_atan2f_PARM_2
      00002B E2               [24]  151 	movx	a,@r0
      00002C F5 F0            [12]  152 	mov	b,a
      00002E 08               [12]  153 	inc	r0
      00002F E2               [24]  154 	movx	a,@r0
      000030 42 F0            [12]  155 	orl	b,a
      000032 08               [12]  156 	inc	r0
      000033 E2               [24]  157 	movx	a,@r0
      000034 42 F0            [12]  158 	orl	b,a
      000036 08               [12]  159 	inc	r0
      000037 E2               [24]  160 	movx	a,@r0
      000038 54 7F            [12]  161 	anl	a,#0x7F
      00003A 45 F0            [12]  162 	orl	a,b
      00003C 70 0F            [24]  163 	jnz	00102$
                                    164 ;	atan2f.c:40: errno=EDOM;
      00003E 78r00            [12]  165 	mov	r0,#_errno
      000040 74 21            [12]  166 	mov	a,#0x21
      000042 F2               [24]  167 	movx	@r0,a
      000043 08               [12]  168 	inc	r0
      000044 E4               [12]  169 	clr	a
      000045 F2               [24]  170 	movx	@r0,a
                                    171 ;	atan2f.c:41: return 0.0;
      000046 90 00 00         [24]  172 	mov	dptr,#(0x00&0x00ff)
      000049 E4               [12]  173 	clr	a
      00004A F5 F0            [12]  174 	mov	b,a
      00004C 22               [24]  175 	ret
      00004D                        176 00102$:
                                    177 ;	atan2f.c:44: if(fabsf(y)>=fabsf(x))
      00004D 78r00            [12]  178 	mov	r0,#_atan2f_PARM_2
      00004F E2               [24]  179 	movx	a,@r0
      000050 F5 82            [12]  180 	mov	dpl,a
      000052 08               [12]  181 	inc	r0
      000053 E2               [24]  182 	movx	a,@r0
      000054 F5 83            [12]  183 	mov	dph,a
      000056 08               [12]  184 	inc	r0
      000057 E2               [24]  185 	movx	a,@r0
      000058 F5 F0            [12]  186 	mov	b,a
      00005A 08               [12]  187 	inc	r0
      00005B E2               [24]  188 	movx	a,@r0
      00005C 12r00r00         [24]  189 	lcall	_fabsf
      00005F 85 82*00         [24]  190 	mov	_atan2f_sloc0_1_0,dpl
      000062 85 83*01         [24]  191 	mov	(_atan2f_sloc0_1_0 + 1),dph
      000065 85 F0*02         [24]  192 	mov	(_atan2f_sloc0_1_0 + 2),b
      000068 F5*03            [12]  193 	mov	(_atan2f_sloc0_1_0 + 3),a
      00006A 78r04            [12]  194 	mov	r0,#_atan2f_x_1_23
      00006C E2               [24]  195 	movx	a,@r0
      00006D F5 82            [12]  196 	mov	dpl,a
      00006F 08               [12]  197 	inc	r0
      000070 E2               [24]  198 	movx	a,@r0
      000071 F5 83            [12]  199 	mov	dph,a
      000073 08               [12]  200 	inc	r0
      000074 E2               [24]  201 	movx	a,@r0
      000075 F5 F0            [12]  202 	mov	b,a
      000077 08               [12]  203 	inc	r0
      000078 E2               [24]  204 	movx	a,@r0
      000079 12r00r00         [24]  205 	lcall	_fabsf
      00007C AC 82            [24]  206 	mov	r4,dpl
      00007E AD 83            [24]  207 	mov	r5,dph
      000080 AE F0            [24]  208 	mov	r6,b
      000082 FF               [12]  209 	mov	r7,a
      000083 C0 04            [24]  210 	push	ar4
      000085 C0 05            [24]  211 	push	ar5
      000087 C0 06            [24]  212 	push	ar6
      000089 C0 07            [24]  213 	push	ar7
      00008B 85*00 82         [24]  214 	mov	dpl,_atan2f_sloc0_1_0
      00008E 85*01 83         [24]  215 	mov	dph,(_atan2f_sloc0_1_0 + 1)
      000091 85*02 F0         [24]  216 	mov	b,(_atan2f_sloc0_1_0 + 2)
      000094 E5*03            [12]  217 	mov	a,(_atan2f_sloc0_1_0 + 3)
      000096 12r00r00         [24]  218 	lcall	___fslt
      000099 AF 82            [24]  219 	mov	r7,dpl
      00009B E5 81            [12]  220 	mov	a,sp
      00009D 24 FC            [12]  221 	add	a,#0xfc
      00009F F5 81            [12]  222 	mov	sp,a
      0000A1 EF               [12]  223 	mov	a,r7
      0000A2 60 03            [24]  224 	jz	00135$
      0000A4 02r01r91         [24]  225 	ljmp	00107$
      0000A7                        226 00135$:
                                    227 ;	atan2f.c:46: r=atanf(x/y);
      0000A7 78r00            [12]  228 	mov	r0,#_atan2f_PARM_2
      0000A9 E2               [24]  229 	movx	a,@r0
      0000AA C0 E0            [24]  230 	push	acc
      0000AC 08               [12]  231 	inc	r0
      0000AD E2               [24]  232 	movx	a,@r0
      0000AE C0 E0            [24]  233 	push	acc
      0000B0 08               [12]  234 	inc	r0
      0000B1 E2               [24]  235 	movx	a,@r0
      0000B2 C0 E0            [24]  236 	push	acc
      0000B4 08               [12]  237 	inc	r0
      0000B5 E2               [24]  238 	movx	a,@r0
      0000B6 C0 E0            [24]  239 	push	acc
      0000B8 78r04            [12]  240 	mov	r0,#_atan2f_x_1_23
      0000BA E2               [24]  241 	movx	a,@r0
      0000BB F5 82            [12]  242 	mov	dpl,a
      0000BD 08               [12]  243 	inc	r0
      0000BE E2               [24]  244 	movx	a,@r0
      0000BF F5 83            [12]  245 	mov	dph,a
      0000C1 08               [12]  246 	inc	r0
      0000C2 E2               [24]  247 	movx	a,@r0
      0000C3 F5 F0            [12]  248 	mov	b,a
      0000C5 08               [12]  249 	inc	r0
      0000C6 E2               [24]  250 	movx	a,@r0
      0000C7 12r00r00         [24]  251 	lcall	___fsdiv
      0000CA AC 82            [24]  252 	mov	r4,dpl
      0000CC AD 83            [24]  253 	mov	r5,dph
      0000CE AE F0            [24]  254 	mov	r6,b
      0000D0 FF               [12]  255 	mov	r7,a
      0000D1 E5 81            [12]  256 	mov	a,sp
      0000D3 24 FC            [12]  257 	add	a,#0xfc
      0000D5 F5 81            [12]  258 	mov	sp,a
      0000D7 8C 82            [24]  259 	mov	dpl,r4
      0000D9 8D 83            [24]  260 	mov	dph,r5
      0000DB 8E F0            [24]  261 	mov	b,r6
      0000DD EF               [12]  262 	mov	a,r7
      0000DE 12r00r00         [24]  263 	lcall	_atanf
      0000E1 78r08            [12]  264 	mov	r0,#_atan2f_r_1_24
      0000E3 C0 E0            [24]  265 	push	acc
      0000E5 E5 82            [12]  266 	mov	a,dpl
      0000E7 F2               [24]  267 	movx	@r0,a
      0000E8 08               [12]  268 	inc	r0
      0000E9 E5 83            [12]  269 	mov	a,dph
      0000EB F2               [24]  270 	movx	@r0,a
      0000EC 08               [12]  271 	inc	r0
      0000ED E5 F0            [12]  272 	mov	a,b
      0000EF F2               [24]  273 	movx	@r0,a
      0000F0 D0 E0            [24]  274 	pop	acc
      0000F2 08               [12]  275 	inc	r0
      0000F3 F2               [24]  276 	movx	@r0,a
                                    277 ;	atan2f.c:47: if(y<0.0) r+=(x>=0?PI:-PI);
      0000F4 E4               [12]  278 	clr	a
      0000F5 C0 E0            [24]  279 	push	acc
      0000F7 C0 E0            [24]  280 	push	acc
      0000F9 C0 E0            [24]  281 	push	acc
      0000FB C0 E0            [24]  282 	push	acc
      0000FD 78r00            [12]  283 	mov	r0,#_atan2f_PARM_2
      0000FF E2               [24]  284 	movx	a,@r0
      000100 F5 82            [12]  285 	mov	dpl,a
      000102 08               [12]  286 	inc	r0
      000103 E2               [24]  287 	movx	a,@r0
      000104 F5 83            [12]  288 	mov	dph,a
      000106 08               [12]  289 	inc	r0
      000107 E2               [24]  290 	movx	a,@r0
      000108 F5 F0            [12]  291 	mov	b,a
      00010A 08               [12]  292 	inc	r0
      00010B E2               [24]  293 	movx	a,@r0
      00010C 12r00r00         [24]  294 	lcall	___fslt
      00010F AB 82            [24]  295 	mov	r3,dpl
      000111 E5 81            [12]  296 	mov	a,sp
      000113 24 FC            [12]  297 	add	a,#0xfc
      000115 F5 81            [12]  298 	mov	sp,a
      000117 EB               [12]  299 	mov	a,r3
      000118 70 03            [24]  300 	jnz	00136$
      00011A 02r02r4C         [24]  301 	ljmp	00108$
      00011D                        302 00136$:
      00011D E4               [12]  303 	clr	a
      00011E C0 E0            [24]  304 	push	acc
      000120 C0 E0            [24]  305 	push	acc
      000122 C0 E0            [24]  306 	push	acc
      000124 C0 E0            [24]  307 	push	acc
      000126 78r04            [12]  308 	mov	r0,#_atan2f_x_1_23
      000128 E2               [24]  309 	movx	a,@r0
      000129 F5 82            [12]  310 	mov	dpl,a
      00012B 08               [12]  311 	inc	r0
      00012C E2               [24]  312 	movx	a,@r0
      00012D F5 83            [12]  313 	mov	dph,a
      00012F 08               [12]  314 	inc	r0
      000130 E2               [24]  315 	movx	a,@r0
      000131 F5 F0            [12]  316 	mov	b,a
      000133 08               [12]  317 	inc	r0
      000134 E2               [24]  318 	movx	a,@r0
      000135 12r00r00         [24]  319 	lcall	___fslt
      000138 AB 82            [24]  320 	mov	r3,dpl
      00013A E5 81            [12]  321 	mov	a,sp
      00013C 24 FC            [12]  322 	add	a,#0xfc
      00013E F5 81            [12]  323 	mov	sp,a
      000140 EB               [12]  324 	mov	a,r3
      000141 B4 01 00         [24]  325 	cjne	a,#0x01,00137$
      000144                        326 00137$:
      000144 E4               [12]  327 	clr	a
      000145 33               [12]  328 	rlc	a
      000146 FB               [12]  329 	mov	r3,a
      000147 60 0A            [24]  330 	jz	00111$
      000149 7A DB            [12]  331 	mov	r2,#0xDB
      00014B 7B 0F            [12]  332 	mov	r3,#0x0F
      00014D 7E 49            [12]  333 	mov	r6,#0x49
      00014F 7F 40            [12]  334 	mov	r7,#0x40
      000151 80 08            [24]  335 	sjmp	00112$
      000153                        336 00111$:
      000153 7A DB            [12]  337 	mov	r2,#0xDB
      000155 7B 0F            [12]  338 	mov	r3,#0x0F
      000157 7E 49            [12]  339 	mov	r6,#0x49
      000159 7F C0            [12]  340 	mov	r7,#0xC0
      00015B                        341 00112$:
      00015B C0 02            [24]  342 	push	ar2
      00015D C0 03            [24]  343 	push	ar3
      00015F C0 06            [24]  344 	push	ar6
      000161 C0 07            [24]  345 	push	ar7
      000163 78r08            [12]  346 	mov	r0,#_atan2f_r_1_24
      000165 E2               [24]  347 	movx	a,@r0
      000166 F5 82            [12]  348 	mov	dpl,a
      000168 08               [12]  349 	inc	r0
      000169 E2               [24]  350 	movx	a,@r0
      00016A F5 83            [12]  351 	mov	dph,a
      00016C 08               [12]  352 	inc	r0
      00016D E2               [24]  353 	movx	a,@r0
      00016E F5 F0            [12]  354 	mov	b,a
      000170 08               [12]  355 	inc	r0
      000171 E2               [24]  356 	movx	a,@r0
      000172 12r00r00         [24]  357 	lcall	___fsadd
      000175 78r08            [12]  358 	mov	r0,#_atan2f_r_1_24
      000177 C0 E0            [24]  359 	push	acc
      000179 E5 82            [12]  360 	mov	a,dpl
      00017B F2               [24]  361 	movx	@r0,a
      00017C 08               [12]  362 	inc	r0
      00017D E5 83            [12]  363 	mov	a,dph
      00017F F2               [24]  364 	movx	@r0,a
      000180 08               [12]  365 	inc	r0
      000181 E5 F0            [12]  366 	mov	a,b
      000183 F2               [24]  367 	movx	@r0,a
      000184 D0 E0            [24]  368 	pop	acc
      000186 08               [12]  369 	inc	r0
      000187 F2               [24]  370 	movx	@r0,a
      000188 E5 81            [12]  371 	mov	a,sp
      00018A 24 FC            [12]  372 	add	a,#0xfc
      00018C F5 81            [12]  373 	mov	sp,a
      00018E 02r02r4C         [24]  374 	ljmp	00108$
      000191                        375 00107$:
                                    376 ;	atan2f.c:51: r=-atanf(y/x);
      000191 78r04            [12]  377 	mov	r0,#_atan2f_x_1_23
      000193 E2               [24]  378 	movx	a,@r0
      000194 C0 E0            [24]  379 	push	acc
      000196 08               [12]  380 	inc	r0
      000197 E2               [24]  381 	movx	a,@r0
      000198 C0 E0            [24]  382 	push	acc
      00019A 08               [12]  383 	inc	r0
      00019B E2               [24]  384 	movx	a,@r0
      00019C C0 E0            [24]  385 	push	acc
      00019E 08               [12]  386 	inc	r0
      00019F E2               [24]  387 	movx	a,@r0
      0001A0 C0 E0            [24]  388 	push	acc
      0001A2 78r00            [12]  389 	mov	r0,#_atan2f_PARM_2
      0001A4 E2               [24]  390 	movx	a,@r0
      0001A5 F5 82            [12]  391 	mov	dpl,a
      0001A7 08               [12]  392 	inc	r0
      0001A8 E2               [24]  393 	movx	a,@r0
      0001A9 F5 83            [12]  394 	mov	dph,a
      0001AB 08               [12]  395 	inc	r0
      0001AC E2               [24]  396 	movx	a,@r0
      0001AD F5 F0            [12]  397 	mov	b,a
      0001AF 08               [12]  398 	inc	r0
      0001B0 E2               [24]  399 	movx	a,@r0
      0001B1 12r00r00         [24]  400 	lcall	___fsdiv
      0001B4 AC 82            [24]  401 	mov	r4,dpl
      0001B6 AD 83            [24]  402 	mov	r5,dph
      0001B8 AE F0            [24]  403 	mov	r6,b
      0001BA FF               [12]  404 	mov	r7,a
      0001BB E5 81            [12]  405 	mov	a,sp
      0001BD 24 FC            [12]  406 	add	a,#0xfc
      0001BF F5 81            [12]  407 	mov	sp,a
      0001C1 8C 82            [24]  408 	mov	dpl,r4
      0001C3 8D 83            [24]  409 	mov	dph,r5
      0001C5 8E F0            [24]  410 	mov	b,r6
      0001C7 EF               [12]  411 	mov	a,r7
      0001C8 12r00r00         [24]  412 	lcall	_atanf
      0001CB AC 82            [24]  413 	mov	r4,dpl
      0001CD AD 83            [24]  414 	mov	r5,dph
      0001CF AE F0            [24]  415 	mov	r6,b
      0001D1 FF               [12]  416 	mov	r7,a
      0001D2 78r08            [12]  417 	mov	r0,#_atan2f_r_1_24
      0001D4 EC               [12]  418 	mov	a,r4
      0001D5 F2               [24]  419 	movx	@r0,a
      0001D6 08               [12]  420 	inc	r0
      0001D7 ED               [12]  421 	mov	a,r5
      0001D8 F2               [24]  422 	movx	@r0,a
      0001D9 08               [12]  423 	inc	r0
      0001DA EE               [12]  424 	mov	a,r6
      0001DB F2               [24]  425 	movx	@r0,a
      0001DC EF               [12]  426 	mov	a,r7
      0001DD B2 E7            [12]  427 	cpl	acc.7
      0001DF 08               [12]  428 	inc	r0
      0001E0 F2               [24]  429 	movx	@r0,a
                                    430 ;	atan2f.c:52: r+=(x<0.0?-HALF_PI:HALF_PI);
      0001E1 E4               [12]  431 	clr	a
      0001E2 C0 E0            [24]  432 	push	acc
      0001E4 C0 E0            [24]  433 	push	acc
      0001E6 C0 E0            [24]  434 	push	acc
      0001E8 C0 E0            [24]  435 	push	acc
      0001EA 78r04            [12]  436 	mov	r0,#_atan2f_x_1_23
      0001EC E2               [24]  437 	movx	a,@r0
      0001ED F5 82            [12]  438 	mov	dpl,a
      0001EF 08               [12]  439 	inc	r0
      0001F0 E2               [24]  440 	movx	a,@r0
      0001F1 F5 83            [12]  441 	mov	dph,a
      0001F3 08               [12]  442 	inc	r0
      0001F4 E2               [24]  443 	movx	a,@r0
      0001F5 F5 F0            [12]  444 	mov	b,a
      0001F7 08               [12]  445 	inc	r0
      0001F8 E2               [24]  446 	movx	a,@r0
      0001F9 12r00r00         [24]  447 	lcall	___fslt
      0001FC AF 82            [24]  448 	mov	r7,dpl
      0001FE E5 81            [12]  449 	mov	a,sp
      000200 24 FC            [12]  450 	add	a,#0xfc
      000202 F5 81            [12]  451 	mov	sp,a
      000204 EF               [12]  452 	mov	a,r7
      000205 60 0A            [24]  453 	jz	00113$
      000207 7C DB            [12]  454 	mov	r4,#0xDB
      000209 7D 0F            [12]  455 	mov	r5,#0x0F
      00020B 7E C9            [12]  456 	mov	r6,#0xC9
      00020D 7F BF            [12]  457 	mov	r7,#0xBF
      00020F 80 08            [24]  458 	sjmp	00114$
      000211                        459 00113$:
      000211 7C DB            [12]  460 	mov	r4,#0xDB
      000213 7D 0F            [12]  461 	mov	r5,#0x0F
      000215 7E C9            [12]  462 	mov	r6,#0xC9
      000217 7F 3F            [12]  463 	mov	r7,#0x3F
      000219                        464 00114$:
      000219 C0 04            [24]  465 	push	ar4
      00021B C0 05            [24]  466 	push	ar5
      00021D C0 06            [24]  467 	push	ar6
      00021F C0 07            [24]  468 	push	ar7
      000221 78r08            [12]  469 	mov	r0,#_atan2f_r_1_24
      000223 E2               [24]  470 	movx	a,@r0
      000224 F5 82            [12]  471 	mov	dpl,a
      000226 08               [12]  472 	inc	r0
      000227 E2               [24]  473 	movx	a,@r0
      000228 F5 83            [12]  474 	mov	dph,a
      00022A 08               [12]  475 	inc	r0
      00022B E2               [24]  476 	movx	a,@r0
      00022C F5 F0            [12]  477 	mov	b,a
      00022E 08               [12]  478 	inc	r0
      00022F E2               [24]  479 	movx	a,@r0
      000230 12r00r00         [24]  480 	lcall	___fsadd
      000233 78r08            [12]  481 	mov	r0,#_atan2f_r_1_24
      000235 C0 E0            [24]  482 	push	acc
      000237 E5 82            [12]  483 	mov	a,dpl
      000239 F2               [24]  484 	movx	@r0,a
      00023A 08               [12]  485 	inc	r0
      00023B E5 83            [12]  486 	mov	a,dph
      00023D F2               [24]  487 	movx	@r0,a
      00023E 08               [12]  488 	inc	r0
      00023F E5 F0            [12]  489 	mov	a,b
      000241 F2               [24]  490 	movx	@r0,a
      000242 D0 E0            [24]  491 	pop	acc
      000244 08               [12]  492 	inc	r0
      000245 F2               [24]  493 	movx	@r0,a
      000246 E5 81            [12]  494 	mov	a,sp
      000248 24 FC            [12]  495 	add	a,#0xfc
      00024A F5 81            [12]  496 	mov	sp,a
      00024C                        497 00108$:
                                    498 ;	atan2f.c:54: return r;
      00024C 78r08            [12]  499 	mov	r0,#_atan2f_r_1_24
      00024E E2               [24]  500 	movx	a,@r0
      00024F F5 82            [12]  501 	mov	dpl,a
      000251 08               [12]  502 	inc	r0
      000252 E2               [24]  503 	movx	a,@r0
      000253 F5 83            [12]  504 	mov	dph,a
      000255 08               [12]  505 	inc	r0
      000256 E2               [24]  506 	movx	a,@r0
      000257 F5 F0            [12]  507 	mov	b,a
      000259 08               [12]  508 	inc	r0
      00025A E2               [24]  509 	movx	a,@r0
      00025B 22               [24]  510 	ret
                                    511 	.area CSEG    (CODE)
                                    512 	.area CONST   (CODE)
                                    513 	.area XINIT   (CODE)
                                    514 	.area CABS    (ABS,CODE)
