;--------------------------------------------------------
; File Created by SDCC : free open source ANSI-C Compiler
; Version 3.3.1 #8898 (Nov 27 2013) (Linux)
; This file was generated Wed Nov 27 12:27:52 2013
;--------------------------------------------------------
	.module sincosf
	.optsdcc -mmcs51 --model-medium
	
;--------------------------------------------------------
; Public variables in this module
;--------------------------------------------------------
	.globl _sincosf
	.globl _fabsf
	.globl _sincosf_PARM_2
;--------------------------------------------------------
; special function registers
;--------------------------------------------------------
	.area RSEG    (ABS,DATA)
	.org 0x0000
;--------------------------------------------------------
; special function bits
;--------------------------------------------------------
	.area RSEG    (ABS,DATA)
	.org 0x0000
;--------------------------------------------------------
; overlayable register banks
;--------------------------------------------------------
	.area REG_BANK_0	(REL,OVR,DATA)
	.ds 8
;--------------------------------------------------------
; internal ram data
;--------------------------------------------------------
	.area DSEG    (DATA)
_sincosf_sloc0_1_0:
	.ds 4
;--------------------------------------------------------
; overlayable items in internal ram 
;--------------------------------------------------------
;--------------------------------------------------------
; indirectly addressable internal ram data
;--------------------------------------------------------
	.area ISEG    (DATA)
;--------------------------------------------------------
; absolute internal ram data
;--------------------------------------------------------
	.area IABS    (ABS,DATA)
	.area IABS    (ABS,DATA)
;--------------------------------------------------------
; bit data
;--------------------------------------------------------
	.area BSEG    (BIT)
_sincosf_PARM_2:
	.ds 1
_sincosf_sign_1_24:
	.ds 1
;--------------------------------------------------------
; paged external ram data
;--------------------------------------------------------
	.area PSEG    (PAG,XDATA)
_sincosf_x_1_23:
	.ds 4
_sincosf_f_1_24:
	.ds 4
_sincosf_r_1_24:
	.ds 4
_sincosf_g_1_24:
	.ds 4
_sincosf_XN_1_24:
	.ds 4
;--------------------------------------------------------
; external ram data
;--------------------------------------------------------
	.area XSEG    (XDATA)
;--------------------------------------------------------
; absolute external ram data
;--------------------------------------------------------
	.area XABS    (ABS,XDATA)
;--------------------------------------------------------
; external initialized ram data
;--------------------------------------------------------
	.area XISEG   (XDATA)
	.area HOME    (CODE)
	.area GSINIT0 (CODE)
	.area GSINIT1 (CODE)
	.area GSINIT2 (CODE)
	.area GSINIT3 (CODE)
	.area GSINIT4 (CODE)
	.area GSINIT5 (CODE)
	.area GSINIT  (CODE)
	.area GSFINAL (CODE)
	.area CSEG    (CODE)
;--------------------------------------------------------
; global & static initialisations
;--------------------------------------------------------
	.area HOME    (CODE)
	.area GSINIT  (CODE)
	.area GSFINAL (CODE)
	.area GSINIT  (CODE)
;--------------------------------------------------------
; Home
;--------------------------------------------------------
	.area HOME    (CODE)
	.area HOME    (CODE)
;--------------------------------------------------------
; code
;--------------------------------------------------------
	.area CSEG    (CODE)
;------------------------------------------------------------
;Allocation info for local variables in function 'sincosf'
;------------------------------------------------------------
;sloc0                     Allocated with name '_sincosf_sloc0_1_0'
;------------------------------------------------------------
;	sincosf.c:50: float sincosf(const float x, const bool iscos)
;	-----------------------------------------
;	 function sincosf
;	-----------------------------------------
_sincosf:
	ar7 = 0x07
	ar6 = 0x06
	ar5 = 0x05
	ar4 = 0x04
	ar3 = 0x03
	ar2 = 0x02
	ar1 = 0x01
	ar0 = 0x00
	mov	r7,dpl
	mov	r6,dph
	mov	r5,b
	mov	r4,a
	mov	r0,#_sincosf_x_1_23
	mov	a,r7
	movx	@r0,a
	inc	r0
	mov	a,r6
	movx	@r0,a
	inc	r0
	mov	a,r5
	movx	@r0,a
	inc	r0
	mov	a,r4
	movx	@r0,a
;	sincosf.c:56: if(iscos)
	jnb	_sincosf_PARM_2,00105$
;	sincosf.c:58: y=fabsf(x)+HALF_PI;
	mov	r0,#_sincosf_x_1_23
	movx	a,@r0
	mov	dpl,a
	inc	r0
	movx	a,@r0
	mov	dph,a
	inc	r0
	movx	a,@r0
	mov	b,a
	inc	r0
	movx	a,@r0
	lcall	_fabsf
	mov	r2,dpl
	mov	r3,dph
	mov	r6,b
	mov	r7,a
	mov	a,#0xDB
	push	acc
	mov	a,#0x0F
	push	acc
	mov	a,#0xC9
	push	acc
	mov	a,#0x3F
	push	acc
	mov	dpl,r2
	mov	dph,r3
	mov	b,r6
	mov	a,r7
	lcall	___fsadd
	mov	r4,dpl
	mov	r5,dph
	mov	r6,b
	mov	r7,a
	mov	a,sp
	add	a,#0xfc
	mov	sp,a
;	sincosf.c:59: sign=0;
	clr	_sincosf_sign_1_24
	sjmp	00106$
00105$:
;	sincosf.c:63: if(x<0.0)
	clr	a
	push	acc
	push	acc
	push	acc
	push	acc
	mov	r0,#_sincosf_x_1_23
	movx	a,@r0
	mov	dpl,a
	inc	r0
	movx	a,@r0
	mov	dph,a
	inc	r0
	movx	a,@r0
	mov	b,a
	inc	r0
	movx	a,@r0
	lcall	___fslt
	mov	r3,dpl
	mov	a,sp
	add	a,#0xfc
	mov	sp,a
	mov	a,r3
	jz	00102$
;	sincosf.c:64: { y=-x; sign=1; }
	mov	r0,#_sincosf_x_1_23
	movx	a,@r0
	mov	r4,a
	inc	r0
	movx	a,@r0
	mov	r5,a
	inc	r0
	movx	a,@r0
	mov	r6,a
	inc	r0
	movx	a,@r0
	cpl	acc.7
	mov	r7,a
	setb	_sincosf_sign_1_24
	sjmp	00106$
00102$:
;	sincosf.c:66: { y=x; sign=0; }
	mov	r0,#_sincosf_x_1_23
	movx	a,@r0
	mov	r4,a
	inc	r0
	movx	a,@r0
	mov	r5,a
	inc	r0
	movx	a,@r0
	mov	r6,a
	inc	r0
	movx	a,@r0
	mov	r7,a
	clr	_sincosf_sign_1_24
00106$:
;	sincosf.c:69: if(y>YMAX)
	push	ar7
	push	ar6
	push	ar5
	push	ar4
	clr	a
	push	acc
	mov	a,#0x0C
	push	acc
	mov	a,#0x49
	push	acc
	mov	a,#0x46
	push	acc
	mov	dpl,r4
	mov	dph,r5
	mov	b,r6
	mov	a,r7
	lcall	___fsgt
	mov	r3,dpl
	mov	a,sp
	add	a,#0xfc
	mov	sp,a
	pop	ar4
	pop	ar5
	pop	ar6
	pop	ar7
	mov	a,r3
	jz	00108$
;	sincosf.c:71: errno=ERANGE;
	mov	r0,#_errno
	mov	a,#0x22
	movx	@r0,a
	inc	r0
	clr	a
	movx	@r0,a
;	sincosf.c:72: return 0.0;
	mov	dptr,#(0x00&0x00ff)
	clr	a
	mov	b,a
	ret
00108$:
;	sincosf.c:76: N=((y*iPI)+0.5); /*y is positive*/
	push	ar4
	push	ar5
	push	ar6
	push	ar7
	mov	dptr,#0xF983
	mov	b,#0xA2
	mov	a,#0x3E
	lcall	___fsmul
	mov	_sincosf_sloc0_1_0,dpl
	mov	(_sincosf_sloc0_1_0 + 1),dph
	mov	(_sincosf_sloc0_1_0 + 2),b
	mov	(_sincosf_sloc0_1_0 + 3),a
	mov	a,sp
	add	a,#0xfc
	mov	sp,a
	clr	a
	push	acc
	push	acc
	push	acc
	mov	a,#0x3F
	push	acc
	mov	dpl,_sincosf_sloc0_1_0
	mov	dph,(_sincosf_sloc0_1_0 + 1)
	mov	b,(_sincosf_sloc0_1_0 + 2)
	mov	a,(_sincosf_sloc0_1_0 + 3)
	lcall	___fsadd
	mov	_sincosf_sloc0_1_0,dpl
	mov	(_sincosf_sloc0_1_0 + 1),dph
	mov	(_sincosf_sloc0_1_0 + 2),b
	mov	(_sincosf_sloc0_1_0 + 3),a
	mov	a,sp
	add	a,#0xfc
	mov	sp,a
	mov	dpl,_sincosf_sloc0_1_0
	mov	dph,(_sincosf_sloc0_1_0 + 1)
	mov	b,(_sincosf_sloc0_1_0 + 2)
	mov	a,(_sincosf_sloc0_1_0 + 3)
	lcall	___fs2sint
	mov	r2,dpl
	mov	r3,dph
;	sincosf.c:79: if(N&1) sign=!sign;
	mov	a,r2
	jnb	acc.0,00110$
	cpl	_sincosf_sign_1_24
00110$:
;	sincosf.c:81: XN=N;
	mov	dpl,r2
	mov	dph,r3
	lcall	___sint2fs
	mov	r0,#_sincosf_XN_1_24
	push	acc
	mov	a,dpl
	movx	@r0,a
	inc	r0
	mov	a,dph
	movx	@r0,a
	inc	r0
	mov	a,b
	movx	@r0,a
	pop	acc
	inc	r0
	movx	@r0,a
;	sincosf.c:83: if(iscos) XN-=0.5;
	jnb	_sincosf_PARM_2,00112$
	clr	a
	push	acc
	push	acc
	push	acc
	mov	a,#0x3F
	push	acc
	mov	r0,#_sincosf_XN_1_24
	movx	a,@r0
	mov	dpl,a
	inc	r0
	movx	a,@r0
	mov	dph,a
	inc	r0
	movx	a,@r0
	mov	b,a
	inc	r0
	movx	a,@r0
	lcall	___fssub
	mov	r0,#_sincosf_XN_1_24
	push	acc
	mov	a,dpl
	movx	@r0,a
	inc	r0
	mov	a,dph
	movx	@r0,a
	inc	r0
	mov	a,b
	movx	@r0,a
	pop	acc
	inc	r0
	movx	@r0,a
	mov	a,sp
	add	a,#0xfc
	mov	sp,a
00112$:
;	sincosf.c:85: y=fabsf(x);
	mov	r0,#_sincosf_x_1_23
	movx	a,@r0
	mov	dpl,a
	inc	r0
	movx	a,@r0
	mov	dph,a
	inc	r0
	movx	a,@r0
	mov	b,a
	inc	r0
	movx	a,@r0
	lcall	_fabsf
;	sincosf.c:86: r=(int)y;
	mov	r4,dpl
	mov	r5,dph
	mov	r6,b
	mov	r7,a
	push	ar7
	push	ar6
	push	ar5
	push	ar4
	lcall	___fs2sint
	lcall	___sint2fs
	mov	r0,#_sincosf_r_1_24
	push	acc
	mov	a,dpl
	movx	@r0,a
	inc	r0
	mov	a,dph
	movx	@r0,a
	inc	r0
	mov	a,b
	movx	@r0,a
	pop	acc
	inc	r0
	movx	@r0,a
	pop	ar4
	pop	ar5
	pop	ar6
	pop	ar7
;	sincosf.c:87: g=y-r;
	mov	r0,#_sincosf_r_1_24
	movx	a,@r0
	push	acc
	inc	r0
	movx	a,@r0
	push	acc
	inc	r0
	movx	a,@r0
	push	acc
	inc	r0
	movx	a,@r0
	push	acc
	mov	dpl,r4
	mov	dph,r5
	mov	b,r6
	mov	a,r7
	lcall	___fssub
	mov	r0,#_sincosf_g_1_24
	push	acc
	mov	a,dpl
	movx	@r0,a
	inc	r0
	mov	a,dph
	movx	@r0,a
	inc	r0
	mov	a,b
	movx	@r0,a
	pop	acc
	inc	r0
	movx	@r0,a
	mov	a,sp
	add	a,#0xfc
	mov	sp,a
;	sincosf.c:88: f=((r-XN*C1)+g)-XN*C2;
	mov	r0,#_sincosf_XN_1_24
	movx	a,@r0
	push	acc
	inc	r0
	movx	a,@r0
	push	acc
	inc	r0
	movx	a,@r0
	push	acc
	inc	r0
	movx	a,@r0
	push	acc
	mov	dptr,#0x0000
	mov	b,#0x49
	mov	a,#0x40
	lcall	___fsmul
	mov	r2,dpl
	mov	r3,dph
	mov	r6,b
	mov	r7,a
	mov	a,sp
	add	a,#0xfc
	mov	sp,a
	push	ar2
	push	ar3
	push	ar6
	push	ar7
	mov	r0,#_sincosf_r_1_24
	movx	a,@r0
	mov	dpl,a
	inc	r0
	movx	a,@r0
	mov	dph,a
	inc	r0
	movx	a,@r0
	mov	b,a
	inc	r0
	movx	a,@r0
	lcall	___fssub
	mov	r4,dpl
	mov	r5,dph
	mov	r6,b
	mov	r7,a
	mov	a,sp
	add	a,#0xfc
	mov	sp,a
	mov	r0,#_sincosf_g_1_24
	movx	a,@r0
	push	acc
	inc	r0
	movx	a,@r0
	push	acc
	inc	r0
	movx	a,@r0
	push	acc
	inc	r0
	movx	a,@r0
	push	acc
	mov	dpl,r4
	mov	dph,r5
	mov	b,r6
	mov	a,r7
	lcall	___fsadd
	mov	_sincosf_sloc0_1_0,dpl
	mov	(_sincosf_sloc0_1_0 + 1),dph
	mov	(_sincosf_sloc0_1_0 + 2),b
	mov	(_sincosf_sloc0_1_0 + 3),a
	mov	a,sp
	add	a,#0xfc
	mov	sp,a
	mov	r0,#_sincosf_XN_1_24
	movx	a,@r0
	push	acc
	inc	r0
	movx	a,@r0
	push	acc
	inc	r0
	movx	a,@r0
	push	acc
	inc	r0
	movx	a,@r0
	push	acc
	mov	dptr,#0xAA22
	mov	b,#0x7D
	mov	a,#0x3A
	lcall	___fsmul
	mov	r2,dpl
	mov	r3,dph
	mov	r6,b
	mov	r7,a
	mov	a,sp
	add	a,#0xfc
	mov	sp,a
	push	ar2
	push	ar3
	push	ar6
	push	ar7
	mov	dpl,_sincosf_sloc0_1_0
	mov	dph,(_sincosf_sloc0_1_0 + 1)
	mov	b,(_sincosf_sloc0_1_0 + 2)
	mov	a,(_sincosf_sloc0_1_0 + 3)
	lcall	___fssub
	mov	r0,#_sincosf_f_1_24
	push	acc
	mov	a,dpl
	movx	@r0,a
	inc	r0
	mov	a,dph
	movx	@r0,a
	inc	r0
	mov	a,b
	movx	@r0,a
	pop	acc
	inc	r0
	movx	@r0,a
	mov	a,sp
	add	a,#0xfc
	mov	sp,a
;	sincosf.c:90: g=f*f;
	mov	r0,#_sincosf_f_1_24
	movx	a,@r0
	push	acc
	inc	r0
	movx	a,@r0
	push	acc
	inc	r0
	movx	a,@r0
	push	acc
	inc	r0
	movx	a,@r0
	push	acc
	mov	r0,#_sincosf_f_1_24
	movx	a,@r0
	mov	dpl,a
	inc	r0
	movx	a,@r0
	mov	dph,a
	inc	r0
	movx	a,@r0
	mov	b,a
	inc	r0
	movx	a,@r0
	lcall	___fsmul
	mov	r0,#_sincosf_g_1_24
	push	acc
	mov	a,dpl
	movx	@r0,a
	inc	r0
	mov	a,dph
	movx	@r0,a
	inc	r0
	mov	a,b
	movx	@r0,a
	pop	acc
	inc	r0
	movx	@r0,a
	mov	a,sp
	add	a,#0xfc
	mov	sp,a
;	sincosf.c:91: if(g>EPS2) //Used to be if(fabsf(f)>EPS)
	mov	a,#0xF3
	push	acc
	mov	a,#0xFF
	push	acc
	mov	a,#0x7F
	push	acc
	mov	a,#0x33
	push	acc
	mov	r0,#_sincosf_g_1_24
	movx	a,@r0
	mov	dpl,a
	inc	r0
	movx	a,@r0
	mov	dph,a
	inc	r0
	movx	a,@r0
	mov	b,a
	inc	r0
	movx	a,@r0
	lcall	___fsgt
	mov	r3,dpl
	mov	a,sp
	add	a,#0xfc
	mov	sp,a
	mov	a,r3
	jnz	00145$
	ljmp	00114$
00145$:
;	sincosf.c:93: r=(((r4*g+r3)*g+r2)*g+r1)*g;
	mov	r0,#_sincosf_g_1_24
	movx	a,@r0
	push	acc
	inc	r0
	movx	a,@r0
	push	acc
	inc	r0
	movx	a,@r0
	push	acc
	inc	r0
	movx	a,@r0
	push	acc
	mov	dptr,#0x9C5B
	mov	b,#0x2E
	mov	a,#0x36
	lcall	___fsmul
	mov	r2,dpl
	mov	r3,dph
	mov	r6,b
	mov	r7,a
	mov	a,sp
	add	a,#0xfc
	mov	sp,a
	mov	a,#0x22
	push	acc
	mov	a,#0xB2
	push	acc
	mov	a,#0x4F
	push	acc
	mov	a,#0xB9
	push	acc
	mov	dpl,r2
	mov	dph,r3
	mov	b,r6
	mov	a,r7
	lcall	___fsadd
	mov	r4,dpl
	mov	r5,dph
	mov	r6,b
	mov	r7,a
	mov	a,sp
	add	a,#0xfc
	mov	sp,a
	mov	r0,#_sincosf_g_1_24
	movx	a,@r0
	push	acc
	inc	r0
	movx	a,@r0
	push	acc
	inc	r0
	movx	a,@r0
	push	acc
	inc	r0
	movx	a,@r0
	push	acc
	mov	dpl,r4
	mov	dph,r5
	mov	b,r6
	mov	a,r7
	lcall	___fsmul
	mov	r4,dpl
	mov	r5,dph
	mov	r6,b
	mov	r7,a
	mov	a,sp
	add	a,#0xfc
	mov	sp,a
	mov	a,#0x3E
	push	acc
	mov	a,#0x87
	push	acc
	mov	a,#0x08
	push	acc
	mov	a,#0x3C
	push	acc
	mov	dpl,r4
	mov	dph,r5
	mov	b,r6
	mov	a,r7
	lcall	___fsadd
	mov	r4,dpl
	mov	r5,dph
	mov	r6,b
	mov	r7,a
	mov	a,sp
	add	a,#0xfc
	mov	sp,a
	mov	r0,#_sincosf_g_1_24
	movx	a,@r0
	push	acc
	inc	r0
	movx	a,@r0
	push	acc
	inc	r0
	movx	a,@r0
	push	acc
	inc	r0
	movx	a,@r0
	push	acc
	mov	dpl,r4
	mov	dph,r5
	mov	b,r6
	mov	a,r7
	lcall	___fsmul
	mov	r4,dpl
	mov	r5,dph
	mov	r6,b
	mov	r7,a
	mov	a,sp
	add	a,#0xfc
	mov	sp,a
	mov	a,#0xA4
	push	acc
	mov	a,#0xAA
	push	acc
	mov	a,#0x2A
	push	acc
	mov	a,#0xBE
	push	acc
	mov	dpl,r4
	mov	dph,r5
	mov	b,r6
	mov	a,r7
	lcall	___fsadd
	mov	r4,dpl
	mov	r5,dph
	mov	r6,b
	mov	r7,a
	mov	a,sp
	add	a,#0xfc
	mov	sp,a
	mov	r0,#_sincosf_g_1_24
	movx	a,@r0
	push	acc
	inc	r0
	movx	a,@r0
	push	acc
	inc	r0
	movx	a,@r0
	push	acc
	inc	r0
	movx	a,@r0
	push	acc
	mov	dpl,r4
	mov	dph,r5
	mov	b,r6
	mov	a,r7
	lcall	___fsmul
	mov	r0,#_sincosf_r_1_24
	push	acc
	mov	a,dpl
	movx	@r0,a
	inc	r0
	mov	a,dph
	movx	@r0,a
	inc	r0
	mov	a,b
	movx	@r0,a
	pop	acc
	inc	r0
	movx	@r0,a
	mov	a,sp
	add	a,#0xfc
	mov	sp,a
;	sincosf.c:94: f+=f*r;
	mov	r0,#_sincosf_r_1_24
	movx	a,@r0
	push	acc
	inc	r0
	movx	a,@r0
	push	acc
	inc	r0
	movx	a,@r0
	push	acc
	inc	r0
	movx	a,@r0
	push	acc
	mov	r0,#_sincosf_f_1_24
	movx	a,@r0
	mov	dpl,a
	inc	r0
	movx	a,@r0
	mov	dph,a
	inc	r0
	movx	a,@r0
	mov	b,a
	inc	r0
	movx	a,@r0
	lcall	___fsmul
	mov	r4,dpl
	mov	r5,dph
	mov	r6,b
	mov	r7,a
	mov	a,sp
	add	a,#0xfc
	mov	sp,a
	push	ar4
	push	ar5
	push	ar6
	push	ar7
	mov	r0,#_sincosf_f_1_24
	movx	a,@r0
	mov	dpl,a
	inc	r0
	movx	a,@r0
	mov	dph,a
	inc	r0
	movx	a,@r0
	mov	b,a
	inc	r0
	movx	a,@r0
	lcall	___fsadd
	mov	r0,#_sincosf_f_1_24
	push	acc
	mov	a,dpl
	movx	@r0,a
	inc	r0
	mov	a,dph
	movx	@r0,a
	inc	r0
	mov	a,b
	movx	@r0,a
	pop	acc
	inc	r0
	movx	@r0,a
	mov	a,sp
	add	a,#0xfc
	mov	sp,a
00114$:
;	sincosf.c:96: return (sign?-f:f);
	jnb	_sincosf_sign_1_24,00117$
	mov	r0,#_sincosf_f_1_24
	movx	a,@r0
	mov	r4,a
	inc	r0
	movx	a,@r0
	mov	r5,a
	inc	r0
	movx	a,@r0
	mov	r6,a
	inc	r0
	movx	a,@r0
	cpl	acc.7
	mov	r7,a
	sjmp	00118$
00117$:
	mov	r0,#_sincosf_f_1_24
	movx	a,@r0
	mov	r4,a
	inc	r0
	movx	a,@r0
	mov	r5,a
	inc	r0
	movx	a,@r0
	mov	r6,a
	inc	r0
	movx	a,@r0
	mov	r7,a
00118$:
	mov	dpl,r4
	mov	dph,r5
	mov	b,r6
	mov	a,r7
	ret
	.area CSEG    (CODE)
	.area CONST   (CODE)
	.area XINIT   (CODE)
	.area CABS    (ABS,CODE)
