;--------------------------------------------------------
; File Created by SDCC : free open source ANSI-C Compiler
; Version 3.3.1 #8898 (Nov 27 2013) (Linux)
; This file was generated Wed Nov 27 12:28:10 2013
;--------------------------------------------------------
	.module asincosf
	.optsdcc -mmcs51 --model-large
	
;--------------------------------------------------------
; Public variables in this module
;--------------------------------------------------------
	.globl _asincosf
	.globl _ldexpf
	.globl _fabsf
	.globl _sqrtf
;--------------------------------------------------------
; special function registers
;--------------------------------------------------------
	.area RSEG    (ABS,DATA)
	.org 0x0000
;--------------------------------------------------------
; special function bits
;--------------------------------------------------------
	.area RSEG    (ABS,DATA)
	.org 0x0000
;--------------------------------------------------------
; overlayable register banks
;--------------------------------------------------------
	.area REG_BANK_0	(REL,OVR,DATA)
	.ds 8
;--------------------------------------------------------
; overlayable bit register bank
;--------------------------------------------------------
	.area BIT_BANK	(REL,OVR,DATA)
bits:
	.ds 1
	b0 = bits[0]
	b1 = bits[1]
	b2 = bits[2]
	b3 = bits[3]
	b4 = bits[4]
	b5 = bits[5]
	b6 = bits[6]
	b7 = bits[7]
;--------------------------------------------------------
; internal ram data
;--------------------------------------------------------
	.area DSEG    (DATA)
;--------------------------------------------------------
; overlayable items in internal ram 
;--------------------------------------------------------
;--------------------------------------------------------
; indirectly addressable internal ram data
;--------------------------------------------------------
	.area ISEG    (DATA)
;--------------------------------------------------------
; absolute internal ram data
;--------------------------------------------------------
	.area IABS    (ABS,DATA)
	.area IABS    (ABS,DATA)
;--------------------------------------------------------
; bit data
;--------------------------------------------------------
	.area BSEG    (BIT)
;--------------------------------------------------------
; paged external ram data
;--------------------------------------------------------
	.area PSEG    (PAG,XDATA)
;--------------------------------------------------------
; external ram data
;--------------------------------------------------------
	.area XSEG    (XDATA)
;--------------------------------------------------------
; absolute external ram data
;--------------------------------------------------------
	.area XABS    (ABS,XDATA)
;--------------------------------------------------------
; external initialized ram data
;--------------------------------------------------------
	.area XISEG   (XDATA)
	.area HOME    (CODE)
	.area GSINIT0 (CODE)
	.area GSINIT1 (CODE)
	.area GSINIT2 (CODE)
	.area GSINIT3 (CODE)
	.area GSINIT4 (CODE)
	.area GSINIT5 (CODE)
	.area GSINIT  (CODE)
	.area GSFINAL (CODE)
	.area CSEG    (CODE)
;--------------------------------------------------------
; global & static initialisations
;--------------------------------------------------------
	.area HOME    (CODE)
	.area GSINIT  (CODE)
	.area GSFINAL (CODE)
	.area GSINIT  (CODE)
;--------------------------------------------------------
; Home
;--------------------------------------------------------
	.area HOME    (CODE)
	.area HOME    (CODE)
;--------------------------------------------------------
; code
;--------------------------------------------------------
	.area CSEG    (CODE)
;------------------------------------------------------------
;Allocation info for local variables in function 'asincosf'
;------------------------------------------------------------
;isacos                    Allocated to registers b0 
;x                         Allocated to stack - _bp +1
;y                         Allocated to registers r2 r4 r6 r7 
;g                         Allocated to stack - _bp +13
;r                         Allocated to stack - _bp +17
;i                         Allocated to registers r5 
;quartPI                   Allocated to registers b1 
;sloc0                     Allocated to stack - _bp +5
;sloc1                     Allocated to stack - _bp +9
;------------------------------------------------------------
;	asincosf.c:47: float asincosf(const float x, const bool isacos)
;	-----------------------------------------
;	 function asincosf
;	-----------------------------------------
_asincosf:
	ar7 = 0x07
	ar6 = 0x06
	ar5 = 0x05
	ar4 = 0x04
	ar3 = 0x03
	ar2 = 0x02
	ar1 = 0x01
	ar0 = 0x00
	push	_bp
	mov	_bp,sp
	push	dpl
	push	dph
	push	b
	push	acc
	mov	a,sp
	add	a,#0x10
	mov	sp,a
;	asincosf.c:51: bool quartPI = isacos;
	mov	c,b0
	mov	b1,c
;	asincosf.c:56: y = fabsf(x);
	mov	r0,_bp
	inc	r0
	mov	dpl,@r0
	inc	r0
	mov	dph,@r0
	inc	r0
	mov	b,@r0
	inc	r0
	mov	a,@r0
	push	bits
	lcall	_fabsf
	mov	r2,dpl
	mov	r3,dph
	mov	r6,b
	mov	r7,a
	pop	bits
	mov	ar4,r3
;	asincosf.c:57: if (y < EPS)
	push	ar7
	push	ar6
	push	ar4
	push	ar2
	push	bits
	clr	a
	push	acc
	push	acc
	mov	a,#0x80
	push	acc
	mov	a,#0x39
	push	acc
	mov	dpl,r2
	mov	dph,r4
	mov	b,r6
	mov	a,r7
	lcall	___fslt
	mov	r3,dpl
	mov	a,sp
	add	a,#0xfc
	mov	sp,a
	pop	bits
	pop	ar2
	pop	ar4
	pop	ar6
	pop	ar7
	mov	a,r3
	jz	00107$
;	asincosf.c:59: r = y;
	mov	a,_bp
	add	a,#0x11
	mov	r0,a
	mov	@r0,ar2
	inc	r0
	mov	@r0,ar4
	inc	r0
	mov	@r0,ar6
	inc	r0
	mov	@r0,ar7
	ljmp	00108$
00107$:
;	asincosf.c:63: if (y > 0.5)
	push	ar7
	push	ar6
	push	ar4
	push	ar2
	push	bits
	clr	a
	push	acc
	push	acc
	push	acc
	mov	a,#0x3F
	push	acc
	mov	dpl,r2
	mov	dph,r4
	mov	b,r6
	mov	a,r7
	lcall	___fsgt
	mov	r5,dpl
	mov	a,sp
	add	a,#0xfc
	mov	sp,a
	pop	bits
	pop	ar2
	pop	ar4
	pop	ar6
	pop	ar7
	mov	a,r5
	jnz	00138$
	ljmp	00104$
00138$:
;	asincosf.c:65: quartPI = !isacos;
	mov	c,b0
	cpl	c
	mov  b2,c
	mov	b1,c
;	asincosf.c:66: if (y > 1.0)
	push	ar7
	push	ar6
	push	ar4
	push	ar2
	push	bits
	clr	a
	push	acc
	push	acc
	mov	a,#0x80
	push	acc
	mov	a,#0x3F
	push	acc
	mov	dpl,r2
	mov	dph,r4
	mov	b,r6
	mov	a,r7
	lcall	___fsgt
	mov	r5,dpl
	mov	a,sp
	add	a,#0xfc
	mov	sp,a
	pop	bits
	pop	ar2
	pop	ar4
	pop	ar6
	pop	ar7
	mov	a,r5
	jz	00102$
;	asincosf.c:68: errno = EDOM;
	mov	dptr,#_errno
	mov	a,#0x21
	movx	@dptr,a
	clr	a
	inc	dptr
	movx	@dptr,a
;	asincosf.c:69: return 0.0;
	mov	dptr,#(0x00&0x00ff)
	clr	a
	mov	b,a
	ljmp	00117$
00102$:
;	asincosf.c:71: g = (0.5 - y) + 0.5;
	push	bits
	push	ar2
	push	ar4
	push	ar6
	push	ar7
	mov	dptr,#0x0000
	mov	b,#0x80
	mov	a,#0x3F
	lcall	___fssub
	mov	r7,dpl
	mov	r6,dph
	mov	r5,b
	mov	r4,a
	mov	a,sp
	add	a,#0xfc
	mov	sp,a
	pop	bits
	mov	a,_bp
	add	a,#0x0d
	mov	r0,a
	mov	@r0,ar7
	inc	r0
	mov	@r0,ar6
	inc	r0
	mov	@r0,ar5
	inc	r0
	mov	@r0,ar4
;	asincosf.c:72: g = ldexpf(g, -1);
	push	bits
	mov	a,#0xFF
	push	acc
	push	acc
	mov	a,_bp
	add	a,#0x0d
	mov	r0,a
	mov	dpl,@r0
	inc	r0
	mov	dph,@r0
	inc	r0
	mov	b,@r0
	inc	r0
	mov	a,@r0
	lcall	_ldexpf
	mov	r7,dpl
	mov	r6,dph
	mov	r5,b
	mov	r4,a
	dec	sp
	dec	sp
	pop	bits
	mov	a,_bp
	add	a,#0x0d
	mov	r0,a
	mov	@r0,ar7
	inc	r0
	mov	@r0,ar6
	inc	r0
	mov	@r0,ar5
	inc	r0
	mov	@r0,ar4
;	asincosf.c:73: y = sqrtf(g);
	mov	a,_bp
	add	a,#0x0d
	mov	r0,a
	mov	dpl,@r0
	inc	r0
	mov	dph,@r0
	inc	r0
	mov	b,@r0
	inc	r0
	mov	a,@r0
	push	bits
	lcall	_sqrtf
	xch	a,r0
	mov	a,_bp
	add	a,#0x05
	xch	a,r0
	mov	@r0,dpl
	inc	r0
	mov	@r0,dph
	inc	r0
	mov	@r0,b
	inc	r0
	mov	@r0,a
	pop	bits
	mov	a,_bp
	add	a,#0x05
	mov	r0,a
	mov	ar2,@r0
	inc	r0
	mov	ar4,@r0
	inc	r0
	mov	ar6,@r0
	inc	r0
	mov	ar7,@r0
;	asincosf.c:74: y = -(y + y);
	push	bits
	push	ar2
	push	ar4
	push	ar6
	push	ar7
	mov	dpl,r2
	mov	dph,r4
	mov	b,r6
	mov	a,r7
	lcall	___fsadd
	mov	r7,dpl
	mov	r6,dph
	mov	r5,b
	mov	r4,a
	mov	a,sp
	add	a,#0xfc
	mov	sp,a
	pop	bits
	mov	a,_bp
	add	a,#0x05
	mov	r0,a
	mov	@r0,ar7
	inc	r0
	mov	@r0,ar6
	inc	r0
	mov	@r0,ar5
	mov	a,r4
	cpl	acc.7
	inc	r0
	mov	@r0,a
	mov	a,_bp
	add	a,#0x05
	mov	r0,a
	mov	ar2,@r0
	inc	r0
	mov	ar4,@r0
	inc	r0
	mov	ar6,@r0
	inc	r0
	mov	ar7,@r0
	sjmp	00105$
00104$:
;	asincosf.c:78: g = y * y;
	push	ar7
	push	ar6
	push	ar4
	push	ar2
	push	bits
	push	ar2
	push	ar4
	push	ar6
	push	ar7
	mov	dpl,r2
	mov	dph,r4
	mov	b,r6
	mov	a,r7
	lcall	___fsmul
	xch	a,r0
	mov	a,_bp
	add	a,#0x05
	xch	a,r0
	mov	@r0,dpl
	inc	r0
	mov	@r0,dph
	inc	r0
	mov	@r0,b
	inc	r0
	mov	@r0,a
	mov	a,sp
	add	a,#0xfc
	mov	sp,a
	pop	bits
	pop	ar2
	pop	ar4
	pop	ar6
	pop	ar7
	mov	a,_bp
	add	a,#0x05
	mov	r0,a
	mov	a,_bp
	add	a,#0x0d
	mov	r1,a
	mov	a,@r0
	mov	@r1,a
	inc	r0
	inc	r1
	mov	a,@r0
	mov	@r1,a
	inc	r0
	inc	r1
	mov	a,@r0
	mov	@r1,a
	inc	r0
	inc	r1
	mov	a,@r0
	mov	@r1,a
00105$:
;	asincosf.c:80: r = y + y * ((P(g) * g) / Q(g));
	push	ar7
	push	ar6
	push	ar4
	push	ar2
	push	bits
	mov	a,_bp
	add	a,#0x0d
	mov	r0,a
	mov	a,@r0
	push	acc
	inc	r0
	mov	a,@r0
	push	acc
	inc	r0
	mov	a,@r0
	push	acc
	inc	r0
	mov	a,@r0
	push	acc
	mov	dptr,#0x2065
	mov	b,#0x01
	mov	a,#0xBF
	lcall	___fsmul
	xch	a,r0
	mov	a,_bp
	add	a,#0x05
	xch	a,r0
	mov	@r0,dpl
	inc	r0
	mov	@r0,dph
	inc	r0
	mov	@r0,b
	inc	r0
	mov	@r0,a
	mov	a,sp
	add	a,#0xfc
	mov	sp,a
	pop	bits
	push	bits
	mov	a,#0x6B
	push	acc
	mov	a,#0x16
	push	acc
	mov	a,#0x6F
	push	acc
	mov	a,#0x3F
	push	acc
	mov	a,_bp
	add	a,#0x05
	mov	r0,a
	mov	dpl,@r0
	inc	r0
	mov	dph,@r0
	inc	r0
	mov	b,@r0
	inc	r0
	mov	a,@r0
	lcall	___fsadd
	xch	a,r0
	mov	a,_bp
	add	a,#0x05
	xch	a,r0
	mov	@r0,dpl
	inc	r0
	mov	@r0,dph
	inc	r0
	mov	@r0,b
	inc	r0
	mov	@r0,a
	mov	a,sp
	add	a,#0xfc
	mov	sp,a
	pop	bits
	push	bits
	mov	a,_bp
	add	a,#0x0d
	mov	r0,a
	mov	a,@r0
	push	acc
	inc	r0
	mov	a,@r0
	push	acc
	inc	r0
	mov	a,@r0
	push	acc
	inc	r0
	mov	a,@r0
	push	acc
	mov	a,_bp
	add	a,#0x05
	mov	r0,a
	mov	dpl,@r0
	inc	r0
	mov	dph,@r0
	inc	r0
	mov	b,@r0
	inc	r0
	mov	a,@r0
	lcall	___fsmul
	xch	a,r0
	mov	a,_bp
	add	a,#0x05
	xch	a,r0
	mov	@r0,dpl
	inc	r0
	mov	@r0,dph
	inc	r0
	mov	@r0,b
	inc	r0
	mov	@r0,a
	mov	a,sp
	add	a,#0xfc
	mov	sp,a
	pop	bits
	push	bits
	mov	a,#0x0B
	push	acc
	mov	a,#0x8D
	push	acc
	mov	a,#0xB1
	push	acc
	mov	a,#0xC0
	push	acc
	mov	a,_bp
	add	a,#0x0d
	mov	r0,a
	mov	dpl,@r0
	inc	r0
	mov	dph,@r0
	inc	r0
	mov	b,@r0
	inc	r0
	mov	a,@r0
	lcall	___fsadd
	xch	a,r0
	mov	a,_bp
	add	a,#0x09
	xch	a,r0
	mov	@r0,dpl
	inc	r0
	mov	@r0,dph
	inc	r0
	mov	@r0,b
	inc	r0
	mov	@r0,a
	mov	a,sp
	add	a,#0xfc
	mov	sp,a
	pop	bits
	push	bits
	mov	a,_bp
	add	a,#0x0d
	mov	r0,a
	mov	a,@r0
	push	acc
	inc	r0
	mov	a,@r0
	push	acc
	inc	r0
	mov	a,@r0
	push	acc
	inc	r0
	mov	a,@r0
	push	acc
	mov	a,_bp
	add	a,#0x09
	mov	r0,a
	mov	dpl,@r0
	inc	r0
	mov	dph,@r0
	inc	r0
	mov	b,@r0
	inc	r0
	mov	a,@r0
	lcall	___fsmul
	xch	a,r0
	mov	a,_bp
	add	a,#0x09
	xch	a,r0
	mov	@r0,dpl
	inc	r0
	mov	@r0,dph
	inc	r0
	mov	@r0,b
	inc	r0
	mov	@r0,a
	mov	a,sp
	add	a,#0xfc
	mov	sp,a
	pop	bits
	push	bits
	mov	a,#0xF0
	push	acc
	mov	a,#0x50
	push	acc
	mov	a,#0xB3
	push	acc
	mov	a,#0x40
	push	acc
	mov	a,_bp
	add	a,#0x09
	mov	r0,a
	mov	dpl,@r0
	inc	r0
	mov	dph,@r0
	inc	r0
	mov	b,@r0
	inc	r0
	mov	a,@r0
	lcall	___fsadd
	xch	a,r0
	mov	a,_bp
	add	a,#0x09
	xch	a,r0
	mov	@r0,dpl
	inc	r0
	mov	@r0,dph
	inc	r0
	mov	@r0,b
	inc	r0
	mov	@r0,a
	mov	a,sp
	add	a,#0xfc
	mov	sp,a
	pop	bits
	push	bits
	mov	a,_bp
	add	a,#0x09
	mov	r0,a
	mov	a,@r0
	push	acc
	inc	r0
	mov	a,@r0
	push	acc
	inc	r0
	mov	a,@r0
	push	acc
	inc	r0
	mov	a,@r0
	push	acc
	mov	a,_bp
	add	a,#0x05
	mov	r0,a
	mov	dpl,@r0
	inc	r0
	mov	dph,@r0
	inc	r0
	mov	b,@r0
	inc	r0
	mov	a,@r0
	lcall	___fsdiv
	xch	a,r0
	mov	a,_bp
	add	a,#0x09
	xch	a,r0
	mov	@r0,dpl
	inc	r0
	mov	@r0,dph
	inc	r0
	mov	@r0,b
	inc	r0
	mov	@r0,a
	mov	a,sp
	add	a,#0xfc
	mov	sp,a
	pop	bits
	pop	ar2
	pop	ar4
	pop	ar6
	pop	ar7
	push	ar7
	push	ar6
	push	ar4
	push	ar2
	push	bits
	mov	a,_bp
	add	a,#0x09
	mov	r0,a
	mov	a,@r0
	push	acc
	inc	r0
	mov	a,@r0
	push	acc
	inc	r0
	mov	a,@r0
	push	acc
	inc	r0
	mov	a,@r0
	push	acc
	mov	dpl,r2
	mov	dph,r4
	mov	b,r6
	mov	a,r7
	lcall	___fsmul
	xch	a,r0
	mov	a,_bp
	add	a,#0x09
	xch	a,r0
	mov	@r0,dpl
	inc	r0
	mov	@r0,dph
	inc	r0
	mov	@r0,b
	inc	r0
	mov	@r0,a
	mov	a,sp
	add	a,#0xfc
	mov	sp,a
	pop	bits
	pop	ar2
	pop	ar4
	pop	ar6
	pop	ar7
	push	bits
	mov	a,_bp
	add	a,#0x09
	mov	r0,a
	mov	a,@r0
	push	acc
	inc	r0
	mov	a,@r0
	push	acc
	inc	r0
	mov	a,@r0
	push	acc
	inc	r0
	mov	a,@r0
	push	acc
	mov	dpl,r2
	mov	dph,r4
	mov	b,r6
	mov	a,r7
	lcall	___fsadd
	mov	r7,dpl
	mov	r6,dph
	mov	r5,b
	mov	r4,a
	mov	a,sp
	add	a,#0xfc
	mov	sp,a
	pop	bits
	mov	a,_bp
	add	a,#0x11
	mov	r0,a
	mov	@r0,ar7
	inc	r0
	mov	@r0,ar6
	inc	r0
	mov	@r0,ar5
	inc	r0
	mov	@r0,ar4
00108$:
;	asincosf.c:82: i = quartPI;
	mov	c,b1
	clr	a
	rlc	a
	mov	r5,a
;	asincosf.c:83: if (isacos)
	jb	b0,00140$
	ljmp	00115$
00140$:
;	asincosf.c:85: if (x < 0.0)
	push	ar5
	clr	a
	push	acc
	push	acc
	push	acc
	push	acc
	mov	r0,_bp
	inc	r0
	mov	dpl,@r0
	inc	r0
	mov	dph,@r0
	inc	r0
	mov	b,@r0
	inc	r0
	mov	a,@r0
	lcall	___fslt
	mov	r4,dpl
	mov	a,sp
	add	a,#0xfc
	mov	sp,a
	pop	ar5
	mov	a,r4
	jnz	00141$
	ljmp	00110$
00141$:
;	asincosf.c:86: r = (b[i] + r) + b[i];
	mov	a,r5
	mov	b,#0x04
	mul	ab
	add	a,#_asincosf_b_1_24
	mov	dpl,a
	mov	a,#(_asincosf_b_1_24 >> 8)
	addc	a,b
	mov	dph,a
	mov	a,_bp
	add	a,#0x09
	mov	r0,a
	clr	a
	movc	a,@a+dptr
	mov	@r0,a
	inc	dptr
	clr	a
	movc	a,@a+dptr
	inc	r0
	mov	@r0,a
	inc	dptr
	clr	a
	movc	a,@a+dptr
	inc	r0
	mov	@r0,a
	inc	dptr
	clr	a
	movc	a,@a+dptr
	inc	r0
	mov	@r0,a
	mov	a,_bp
	add	a,#0x11
	mov	r0,a
	mov	a,@r0
	push	acc
	inc	r0
	mov	a,@r0
	push	acc
	inc	r0
	mov	a,@r0
	push	acc
	inc	r0
	mov	a,@r0
	push	acc
	mov	a,_bp
	add	a,#0x09
	mov	r0,a
	mov	dpl,@r0
	inc	r0
	mov	dph,@r0
	inc	r0
	mov	b,@r0
	inc	r0
	mov	a,@r0
	lcall	___fsadd
	mov	r2,dpl
	mov	r4,dph
	mov	r6,b
	mov	r7,a
	mov	a,sp
	add	a,#0xfc
	mov	sp,a
	mov	a,_bp
	add	a,#0x09
	mov	r0,a
	mov	a,@r0
	push	acc
	inc	r0
	mov	a,@r0
	push	acc
	inc	r0
	mov	a,@r0
	push	acc
	inc	r0
	mov	a,@r0
	push	acc
	mov	dpl,r2
	mov	dph,r4
	mov	b,r6
	mov	a,r7
	lcall	___fsadd
	mov	r3,dpl
	mov	r4,dph
	mov	r6,b
	mov	r7,a
	mov	a,sp
	add	a,#0xfc
	mov	sp,a
	mov	a,_bp
	add	a,#0x11
	mov	r0,a
	mov	@r0,ar3
	inc	r0
	mov	@r0,ar4
	inc	r0
	mov	@r0,ar6
	inc	r0
	mov	@r0,ar7
	ljmp	00116$
00110$:
;	asincosf.c:88: r = (a[i] - r) + a[i];
	mov	a,r5
	mov	b,#0x04
	mul	ab
	add	a,#_asincosf_a_1_24
	mov	dpl,a
	mov	a,#(_asincosf_a_1_24 >> 8)
	addc	a,b
	mov	dph,a
	mov	a,_bp
	add	a,#0x09
	mov	r0,a
	clr	a
	movc	a,@a+dptr
	mov	@r0,a
	inc	dptr
	clr	a
	movc	a,@a+dptr
	inc	r0
	mov	@r0,a
	inc	dptr
	clr	a
	movc	a,@a+dptr
	inc	r0
	mov	@r0,a
	inc	dptr
	clr	a
	movc	a,@a+dptr
	inc	r0
	mov	@r0,a
	mov	a,_bp
	add	a,#0x11
	mov	r0,a
	mov	a,@r0
	push	acc
	inc	r0
	mov	a,@r0
	push	acc
	inc	r0
	mov	a,@r0
	push	acc
	inc	r0
	mov	a,@r0
	push	acc
	mov	a,_bp
	add	a,#0x09
	mov	r0,a
	mov	dpl,@r0
	inc	r0
	mov	dph,@r0
	inc	r0
	mov	b,@r0
	inc	r0
	mov	a,@r0
	lcall	___fssub
	mov	r2,dpl
	mov	r4,dph
	mov	r6,b
	mov	r7,a
	mov	a,sp
	add	a,#0xfc
	mov	sp,a
	mov	a,_bp
	add	a,#0x09
	mov	r0,a
	mov	a,@r0
	push	acc
	inc	r0
	mov	a,@r0
	push	acc
	inc	r0
	mov	a,@r0
	push	acc
	inc	r0
	mov	a,@r0
	push	acc
	mov	dpl,r2
	mov	dph,r4
	mov	b,r6
	mov	a,r7
	lcall	___fsadd
	mov	r3,dpl
	mov	r4,dph
	mov	r6,b
	mov	r7,a
	mov	a,sp
	add	a,#0xfc
	mov	sp,a
	mov	a,_bp
	add	a,#0x11
	mov	r0,a
	mov	@r0,ar3
	inc	r0
	mov	@r0,ar4
	inc	r0
	mov	@r0,ar6
	inc	r0
	mov	@r0,ar7
	ljmp	00116$
00115$:
;	asincosf.c:92: r = (a[i] + r) + a[i];
	mov	a,r5
	mov	b,#0x04
	mul	ab
	add	a,#_asincosf_a_1_24
	mov	dpl,a
	mov	a,#(_asincosf_a_1_24 >> 8)
	addc	a,b
	mov	dph,a
	mov	a,_bp
	add	a,#0x09
	mov	r0,a
	clr	a
	movc	a,@a+dptr
	mov	@r0,a
	inc	dptr
	clr	a
	movc	a,@a+dptr
	inc	r0
	mov	@r0,a
	inc	dptr
	clr	a
	movc	a,@a+dptr
	inc	r0
	mov	@r0,a
	inc	dptr
	clr	a
	movc	a,@a+dptr
	inc	r0
	mov	@r0,a
	mov	a,_bp
	add	a,#0x11
	mov	r0,a
	mov	a,@r0
	push	acc
	inc	r0
	mov	a,@r0
	push	acc
	inc	r0
	mov	a,@r0
	push	acc
	inc	r0
	mov	a,@r0
	push	acc
	mov	a,_bp
	add	a,#0x09
	mov	r0,a
	mov	dpl,@r0
	inc	r0
	mov	dph,@r0
	inc	r0
	mov	b,@r0
	inc	r0
	mov	a,@r0
	lcall	___fsadd
	mov	r2,dpl
	mov	r3,dph
	mov	r6,b
	mov	r7,a
	mov	a,sp
	add	a,#0xfc
	mov	sp,a
	mov	a,_bp
	add	a,#0x09
	mov	r0,a
	mov	a,@r0
	push	acc
	inc	r0
	mov	a,@r0
	push	acc
	inc	r0
	mov	a,@r0
	push	acc
	inc	r0
	mov	a,@r0
	push	acc
	mov	dpl,r2
	mov	dph,r3
	mov	b,r6
	mov	a,r7
	lcall	___fsadd
	mov	r4,dpl
	mov	r5,dph
	mov	r6,b
	mov	r7,a
	mov	a,sp
	add	a,#0xfc
	mov	sp,a
	mov	a,_bp
	add	a,#0x11
	mov	r0,a
	mov	@r0,ar4
	inc	r0
	mov	@r0,ar5
	inc	r0
	mov	@r0,ar6
	inc	r0
	mov	@r0,ar7
;	asincosf.c:93: if (x < 0.0)
	clr	a
	push	acc
	push	acc
	push	acc
	push	acc
	mov	r0,_bp
	inc	r0
	mov	dpl,@r0
	inc	r0
	mov	dph,@r0
	inc	r0
	mov	b,@r0
	inc	r0
	mov	a,@r0
	lcall	___fslt
	mov	r7,dpl
	mov	a,sp
	add	a,#0xfc
	mov	sp,a
	mov	a,r7
	jz	00116$
;	asincosf.c:94: r = -r;
	mov	a,_bp
	add	a,#0x11
	mov	r0,a
	mov	a,@r0
	mov	@r0,a
	inc	r0
	mov	a,@r0
	mov	@r0,a
	inc	r0
	mov	a,@r0
	mov	@r0,a
	inc	r0
	mov	a,@r0
	cpl	acc.7
	mov	@r0,a
00116$:
;	asincosf.c:96: return r;
	mov	a,_bp
	add	a,#0x11
	mov	r0,a
	mov	dpl,@r0
	inc	r0
	mov	dph,@r0
	inc	r0
	mov	b,@r0
	inc	r0
	mov	a,@r0
00117$:
	mov	sp,_bp
	pop	_bp
	ret
	.area CSEG    (CODE)
	.area CONST   (CODE)
_asincosf_a_1_24:
	.byte #0x00,#0x00,#0x00,#0x00	;  0.000000e+00
	.byte #0xDB,#0x0F,#0x49,#0x3F	;  7.853982e-01
_asincosf_b_1_24:
	.byte #0xDB,#0x0F,#0xC9,#0x3F	;  1.570796e+00
	.byte #0xDB,#0x0F,#0x49,#0x3F	;  7.853982e-01
	.area XINIT   (CODE)
	.area CABS    (ABS,CODE)
