;--------------------------------------------------------
; File Created by SDCC : free open source ANSI-C Compiler
; Version 3.3.1 #8898 (Nov 27 2013) (Linux)
; This file was generated Wed Nov 27 12:28:10 2013
;--------------------------------------------------------
	.module atanf
	.optsdcc -mmcs51 --model-large
	
;--------------------------------------------------------
; Public variables in this module
;--------------------------------------------------------
	.globl _fabsf
	.globl _atanf
;--------------------------------------------------------
; special function registers
;--------------------------------------------------------
	.area RSEG    (ABS,DATA)
	.org 0x0000
;--------------------------------------------------------
; special function bits
;--------------------------------------------------------
	.area RSEG    (ABS,DATA)
	.org 0x0000
;--------------------------------------------------------
; overlayable register banks
;--------------------------------------------------------
	.area REG_BANK_0	(REL,OVR,DATA)
	.ds 8
;--------------------------------------------------------
; internal ram data
;--------------------------------------------------------
	.area DSEG    (DATA)
;--------------------------------------------------------
; overlayable items in internal ram 
;--------------------------------------------------------
;--------------------------------------------------------
; indirectly addressable internal ram data
;--------------------------------------------------------
	.area ISEG    (DATA)
;--------------------------------------------------------
; absolute internal ram data
;--------------------------------------------------------
	.area IABS    (ABS,DATA)
	.area IABS    (ABS,DATA)
;--------------------------------------------------------
; bit data
;--------------------------------------------------------
	.area BSEG    (BIT)
;--------------------------------------------------------
; paged external ram data
;--------------------------------------------------------
	.area PSEG    (PAG,XDATA)
;--------------------------------------------------------
; external ram data
;--------------------------------------------------------
	.area XSEG    (XDATA)
;--------------------------------------------------------
; absolute external ram data
;--------------------------------------------------------
	.area XABS    (ABS,XDATA)
;--------------------------------------------------------
; external initialized ram data
;--------------------------------------------------------
	.area XISEG   (XDATA)
	.area HOME    (CODE)
	.area GSINIT0 (CODE)
	.area GSINIT1 (CODE)
	.area GSINIT2 (CODE)
	.area GSINIT3 (CODE)
	.area GSINIT4 (CODE)
	.area GSINIT5 (CODE)
	.area GSINIT  (CODE)
	.area GSFINAL (CODE)
	.area CSEG    (CODE)
;--------------------------------------------------------
; global & static initialisations
;--------------------------------------------------------
	.area HOME    (CODE)
	.area GSINIT  (CODE)
	.area GSFINAL (CODE)
	.area GSINIT  (CODE)
;--------------------------------------------------------
; Home
;--------------------------------------------------------
	.area HOME    (CODE)
	.area HOME    (CODE)
;--------------------------------------------------------
; code
;--------------------------------------------------------
	.area CSEG    (CODE)
;------------------------------------------------------------
;Allocation info for local variables in function 'atanf'
;------------------------------------------------------------
;x                         Allocated to stack - _bp +1
;f                         Allocated to stack - _bp +9
;r                         Allocated to stack - _bp +13
;g                         Allocated to registers r7 r6 r5 r4 
;n                         Allocated to stack - _bp +17
;sloc0                     Allocated to stack - _bp +5
;sloc1                     Allocated to stack - _bp +23
;------------------------------------------------------------
;	atanf.c:55: float atanf(const float x) _FLOAT_FUNC_REENTRANT
;	-----------------------------------------
;	 function atanf
;	-----------------------------------------
_atanf:
	ar7 = 0x07
	ar6 = 0x06
	ar5 = 0x05
	ar4 = 0x04
	ar3 = 0x03
	ar2 = 0x02
	ar1 = 0x01
	ar0 = 0x00
	push	_bp
	mov	_bp,sp
	push	dpl
	push	dph
	push	b
	push	acc
	mov	a,sp
	add	a,#0x0E
	mov	sp,a
;	atanf.c:58: int n=0;
	mov	a,_bp
	add	a,#0x11
	mov	r0,a
	clr	a
	mov	@r0,a
	inc	r0
	mov	@r0,a
;	atanf.c:61: f=fabsf(x);
	mov	r0,_bp
	inc	r0
	mov	dpl,@r0
	inc	r0
	mov	dph,@r0
	inc	r0
	mov	b,@r0
	inc	r0
	mov	a,@r0
	lcall	_fabsf
	mov	r7,dpl
	mov	r6,dph
	mov	r5,b
	mov	r4,a
	mov	a,_bp
	add	a,#0x09
	mov	r0,a
	mov	@r0,ar7
	inc	r0
	mov	@r0,ar6
	inc	r0
	mov	@r0,ar5
	inc	r0
	mov	@r0,ar4
;	atanf.c:62: if(f>1.0)
	clr	a
	push	acc
	push	acc
	mov	a,#0x80
	push	acc
	mov	a,#0x3F
	push	acc
	mov	a,_bp
	add	a,#0x09
	mov	r0,a
	mov	dpl,@r0
	inc	r0
	mov	dph,@r0
	inc	r0
	mov	b,@r0
	inc	r0
	mov	a,@r0
	lcall	___fsgt
	mov	r3,dpl
	mov	a,sp
	add	a,#0xfc
	mov	sp,a
	mov	a,r3
	jz	00102$
;	atanf.c:64: f=1.0/f;
	mov	a,_bp
	add	a,#0x09
	mov	r0,a
	mov	a,@r0
	push	acc
	inc	r0
	mov	a,@r0
	push	acc
	inc	r0
	mov	a,@r0
	push	acc
	inc	r0
	mov	a,@r0
	push	acc
	mov	dptr,#0x0000
	mov	b,#0x80
	mov	a,#0x3F
	lcall	___fsdiv
	mov	r7,dpl
	mov	r6,dph
	mov	r5,b
	mov	r4,a
	mov	a,sp
	add	a,#0xfc
	mov	sp,a
	mov	a,_bp
	add	a,#0x09
	mov	r0,a
	mov	@r0,ar7
	inc	r0
	mov	@r0,ar6
	inc	r0
	mov	@r0,ar5
	inc	r0
	mov	@r0,ar4
;	atanf.c:65: n=2;
	mov	a,_bp
	add	a,#0x11
	mov	r0,a
	mov	@r0,#0x02
	inc	r0
	mov	@r0,#0x00
00102$:
;	atanf.c:67: if(f>K1)
	mov	a,#0xA3
	push	acc
	mov	a,#0x30
	push	acc
	mov	a,#0x89
	push	acc
	mov	a,#0x3E
	push	acc
	mov	a,_bp
	add	a,#0x09
	mov	r0,a
	mov	dpl,@r0
	inc	r0
	mov	dph,@r0
	inc	r0
	mov	b,@r0
	inc	r0
	mov	a,@r0
	lcall	___fsgt
	mov	r3,dpl
	mov	a,sp
	add	a,#0xfc
	mov	sp,a
	mov	a,r3
	jnz	00130$
	ljmp	00104$
00130$:
;	atanf.c:69: f=((K2*f-1.0)+f)/(K3+f);
	mov	a,_bp
	add	a,#0x09
	mov	r0,a
	mov	a,@r0
	push	acc
	inc	r0
	mov	a,@r0
	push	acc
	inc	r0
	mov	a,@r0
	push	acc
	inc	r0
	mov	a,@r0
	push	acc
	mov	dptr,#0x67AF
	mov	b,#0x3B
	mov	a,#0x3F
	lcall	___fsmul
	mov	r2,dpl
	mov	r3,dph
	mov	r6,b
	mov	r7,a
	mov	a,sp
	add	a,#0xfc
	mov	sp,a
	clr	a
	push	acc
	push	acc
	mov	a,#0x80
	push	acc
	mov	a,#0x3F
	push	acc
	mov	dpl,r2
	mov	dph,r3
	mov	b,r6
	mov	a,r7
	lcall	___fssub
	mov	r4,dpl
	mov	r5,dph
	mov	r6,b
	mov	r7,a
	mov	a,sp
	add	a,#0xfc
	mov	sp,a
	mov	a,_bp
	add	a,#0x09
	mov	r0,a
	mov	a,@r0
	push	acc
	inc	r0
	mov	a,@r0
	push	acc
	inc	r0
	mov	a,@r0
	push	acc
	inc	r0
	mov	a,@r0
	push	acc
	mov	dpl,r4
	mov	dph,r5
	mov	b,r6
	mov	a,r7
	lcall	___fsadd
	xch	a,r0
	mov	a,_bp
	add	a,#0x05
	xch	a,r0
	mov	@r0,dpl
	inc	r0
	mov	@r0,dph
	inc	r0
	mov	@r0,b
	inc	r0
	mov	@r0,a
	mov	a,sp
	add	a,#0xfc
	mov	sp,a
	mov	a,#0xD7
	push	acc
	mov	a,#0xB3
	push	acc
	mov	a,#0xDD
	push	acc
	mov	a,#0x3F
	push	acc
	mov	a,_bp
	add	a,#0x09
	mov	r0,a
	mov	dpl,@r0
	inc	r0
	mov	dph,@r0
	inc	r0
	mov	b,@r0
	inc	r0
	mov	a,@r0
	lcall	___fsadd
	mov	r2,dpl
	mov	r3,dph
	mov	r6,b
	mov	r7,a
	mov	a,sp
	add	a,#0xfc
	mov	sp,a
	push	ar2
	push	ar3
	push	ar6
	push	ar7
	mov	a,_bp
	add	a,#0x05
	mov	r0,a
	mov	dpl,@r0
	inc	r0
	mov	dph,@r0
	inc	r0
	mov	b,@r0
	inc	r0
	mov	a,@r0
	lcall	___fsdiv
	mov	r4,dpl
	mov	r5,dph
	mov	r6,b
	mov	r7,a
	mov	a,sp
	add	a,#0xfc
	mov	sp,a
	mov	a,_bp
	add	a,#0x09
	mov	r0,a
	mov	@r0,ar4
	inc	r0
	mov	@r0,ar5
	inc	r0
	mov	@r0,ar6
	inc	r0
	mov	@r0,ar7
;	atanf.c:73: n++;
	mov	a,_bp
	add	a,#0x11
	mov	r0,a
	inc	@r0
	cjne	@r0,#0x00,00131$
	inc	r0
	inc	@r0
00131$:
00104$:
;	atanf.c:75: if(fabsf(f)<EPS) r=f;
	mov	a,_bp
	add	a,#0x09
	mov	r0,a
	mov	dpl,@r0
	inc	r0
	mov	dph,@r0
	inc	r0
	mov	b,@r0
	inc	r0
	mov	a,@r0
	lcall	_fabsf
	mov	r4,dpl
	mov	r5,dph
	mov	r6,b
	mov	r7,a
	clr	a
	push	acc
	push	acc
	mov	a,#0x80
	push	acc
	mov	a,#0x39
	push	acc
	mov	dpl,r4
	mov	dph,r5
	mov	b,r6
	mov	a,r7
	lcall	___fslt
	mov	r7,dpl
	mov	a,sp
	add	a,#0xfc
	mov	sp,a
	mov	a,r7
	jz	00106$
	mov	a,_bp
	add	a,#0x09
	mov	r0,a
	mov	a,_bp
	add	a,#0x0d
	mov	r1,a
	mov	a,@r0
	mov	@r1,a
	inc	r0
	inc	r1
	mov	a,@r0
	mov	@r1,a
	inc	r0
	inc	r1
	mov	a,@r0
	mov	@r1,a
	inc	r0
	inc	r1
	mov	a,@r0
	mov	@r1,a
	ljmp	00107$
00106$:
;	atanf.c:78: g=f*f;
	mov	a,_bp
	add	a,#0x09
	mov	r0,a
	mov	a,@r0
	push	acc
	inc	r0
	mov	a,@r0
	push	acc
	inc	r0
	mov	a,@r0
	push	acc
	inc	r0
	mov	a,@r0
	push	acc
	mov	a,_bp
	add	a,#0x09
	mov	r0,a
	mov	dpl,@r0
	inc	r0
	mov	dph,@r0
	inc	r0
	mov	b,@r0
	inc	r0
	mov	a,@r0
	lcall	___fsmul
	mov	r7,dpl
	mov	r6,dph
	mov	r5,b
	mov	r4,a
	mov	a,sp
	add	a,#0xfc
	mov	sp,a
;	atanf.c:79: r=f+P(g,f)/Q(g);
	push	ar7
	push	ar6
	push	ar5
	push	ar4
	push	ar7
	push	ar6
	push	ar5
	push	ar4
	mov	dptr,#0x8691
	mov	b,#0x50
	mov	a,#0xBD
	lcall	___fsmul
	xch	a,r0
	mov	a,_bp
	add	a,#0x05
	xch	a,r0
	mov	@r0,dpl
	inc	r0
	mov	@r0,dph
	inc	r0
	mov	@r0,b
	inc	r0
	mov	@r0,a
	mov	a,sp
	add	a,#0xfc
	mov	sp,a
	mov	a,#0xF6
	push	acc
	mov	a,#0x10
	push	acc
	mov	a,#0xF1
	push	acc
	mov	a,#0xBE
	push	acc
	mov	a,_bp
	add	a,#0x05
	mov	r0,a
	mov	dpl,@r0
	inc	r0
	mov	dph,@r0
	inc	r0
	mov	b,@r0
	inc	r0
	mov	a,@r0
	lcall	___fsadd
	xch	a,r0
	mov	a,_bp
	add	a,#0x05
	xch	a,r0
	mov	@r0,dpl
	inc	r0
	mov	@r0,dph
	inc	r0
	mov	@r0,b
	inc	r0
	mov	@r0,a
	mov	a,sp
	add	a,#0xfc
	mov	sp,a
	pop	ar4
	pop	ar5
	pop	ar6
	pop	ar7
	push	ar7
	push	ar6
	push	ar5
	push	ar4
	push	ar7
	push	ar6
	push	ar5
	push	ar4
	mov	a,_bp
	add	a,#0x05
	mov	r0,a
	mov	dpl,@r0
	inc	r0
	mov	dph,@r0
	inc	r0
	mov	b,@r0
	inc	r0
	mov	a,@r0
	lcall	___fsmul
	xch	a,r0
	mov	a,_bp
	add	a,#0x05
	xch	a,r0
	mov	@r0,dpl
	inc	r0
	mov	@r0,dph
	inc	r0
	mov	@r0,b
	inc	r0
	mov	@r0,a
	mov	a,sp
	add	a,#0xfc
	mov	sp,a
	mov	a,_bp
	add	a,#0x09
	mov	r0,a
	mov	a,@r0
	push	acc
	inc	r0
	mov	a,@r0
	push	acc
	inc	r0
	mov	a,@r0
	push	acc
	inc	r0
	mov	a,@r0
	push	acc
	mov	a,_bp
	add	a,#0x05
	mov	r0,a
	mov	dpl,@r0
	inc	r0
	mov	dph,@r0
	inc	r0
	mov	b,@r0
	inc	r0
	mov	a,@r0
	lcall	___fsmul
	xch	a,r0
	mov	a,_bp
	add	a,#0x05
	xch	a,r0
	mov	@r0,dpl
	inc	r0
	mov	@r0,dph
	inc	r0
	mov	@r0,b
	inc	r0
	mov	@r0,a
	mov	a,sp
	add	a,#0xfc
	mov	sp,a
	pop	ar4
	pop	ar5
	pop	ar6
	pop	ar7
	mov	a,#0xD3
	push	acc
	mov	a,#0xCC
	push	acc
	mov	a,#0xB4
	push	acc
	mov	a,#0x3F
	push	acc
	mov	dpl,r7
	mov	dph,r6
	mov	b,r5
	mov	a,r4
	lcall	___fsadd
	mov	r7,dpl
	mov	r6,dph
	mov	r5,b
	mov	r4,a
	mov	a,sp
	add	a,#0xfc
	mov	sp,a
	push	ar7
	push	ar6
	push	ar5
	push	ar4
	mov	a,_bp
	add	a,#0x05
	mov	r0,a
	mov	dpl,@r0
	inc	r0
	mov	dph,@r0
	inc	r0
	mov	b,@r0
	inc	r0
	mov	a,@r0
	lcall	___fsdiv
	mov	r7,dpl
	mov	r6,dph
	mov	r5,b
	mov	r4,a
	mov	a,sp
	add	a,#0xfc
	mov	sp,a
	push	ar7
	push	ar6
	push	ar5
	push	ar4
	mov	a,_bp
	add	a,#0x09
	mov	r0,a
	mov	dpl,@r0
	inc	r0
	mov	dph,@r0
	inc	r0
	mov	b,@r0
	inc	r0
	mov	a,@r0
	lcall	___fsadd
	mov	r7,dpl
	mov	r6,dph
	mov	r5,b
	mov	r4,a
	mov	a,sp
	add	a,#0xfc
	mov	sp,a
	mov	a,_bp
	add	a,#0x0d
	mov	r0,a
	mov	@r0,ar7
	inc	r0
	mov	@r0,ar6
	inc	r0
	mov	@r0,ar5
	inc	r0
	mov	@r0,ar4
00107$:
;	atanf.c:81: if(n>1) r=-r;
	mov	a,_bp
	add	a,#0x11
	mov	r0,a
	clr	c
	mov	a,#0x01
	subb	a,@r0
	mov	a,#(0x00 ^ 0x80)
	inc	r0
	mov	b,@r0
	xrl	b,#0x80
	subb	a,b
	jnc	00109$
	mov	a,_bp
	add	a,#0x0d
	mov	r0,a
	mov	a,@r0
	mov	@r0,a
	inc	r0
	mov	a,@r0
	mov	@r0,a
	inc	r0
	mov	a,@r0
	mov	@r0,a
	inc	r0
	mov	a,@r0
	cpl	acc.7
	mov	@r0,a
00109$:
;	atanf.c:82: r+=a[n];
	mov	a,_bp
	add	a,#0x11
	mov	r0,a
	mov	ar2,@r0
	inc	r0
	mov	a,@r0
	xch	a,r2
	add	a,acc
	xch	a,r2
	rlc	a
	xch	a,r2
	add	a,acc
	xch	a,r2
	rlc	a
	mov	r3,a
	mov	a,r2
	add	a,#_atanf_a_1_24
	mov	dpl,a
	mov	a,r3
	addc	a,#(_atanf_a_1_24 >> 8)
	mov	dph,a
	clr	a
	movc	a,@a+dptr
	mov	r2,a
	inc	dptr
	clr	a
	movc	a,@a+dptr
	mov	r3,a
	inc	dptr
	clr	a
	movc	a,@a+dptr
	mov	r6,a
	inc	dptr
	clr	a
	movc	a,@a+dptr
	mov	r7,a
	push	ar2
	push	ar3
	push	ar6
	push	ar7
	mov	a,_bp
	add	a,#0x0d
	mov	r0,a
	mov	dpl,@r0
	inc	r0
	mov	dph,@r0
	inc	r0
	mov	b,@r0
	inc	r0
	mov	a,@r0
	lcall	___fsadd
	mov	r4,dpl
	mov	r5,dph
	mov	r6,b
	mov	r7,a
	mov	a,sp
	add	a,#0xfc
	mov	sp,a
	mov	a,_bp
	add	a,#0x0d
	mov	r0,a
	mov	@r0,ar4
	inc	r0
	mov	@r0,ar5
	inc	r0
	mov	@r0,ar6
	inc	r0
	mov	@r0,ar7
;	atanf.c:83: if(x<0.0) r=-r;
	clr	a
	push	acc
	push	acc
	push	acc
	push	acc
	mov	r0,_bp
	inc	r0
	mov	dpl,@r0
	inc	r0
	mov	dph,@r0
	inc	r0
	mov	b,@r0
	inc	r0
	mov	a,@r0
	lcall	___fslt
	mov	r7,dpl
	mov	a,sp
	add	a,#0xfc
	mov	sp,a
	mov	a,r7
	jz	00111$
	mov	a,_bp
	add	a,#0x0d
	mov	r0,a
	mov	a,@r0
	mov	@r0,a
	inc	r0
	mov	a,@r0
	mov	@r0,a
	inc	r0
	mov	a,@r0
	mov	@r0,a
	inc	r0
	mov	a,@r0
	cpl	acc.7
	mov	@r0,a
00111$:
;	atanf.c:84: return r;
	mov	a,_bp
	add	a,#0x0d
	mov	r0,a
	mov	dpl,@r0
	inc	r0
	mov	dph,@r0
	inc	r0
	mov	b,@r0
	inc	r0
	mov	a,@r0
	mov	sp,_bp
	pop	_bp
	ret
	.area CSEG    (CODE)
	.area CONST   (CODE)
_atanf_a_1_24:
	.byte #0x00,#0x00,#0x00,#0x00	;  0.000000e+00
	.byte #0x92,#0x0A,#0x06,#0x3F	;  5.235988e-01
	.byte #0xDB,#0x0F,#0xC9,#0x3F	;  1.570796e+00
	.byte #0x92,#0x0A,#0x86,#0x3F	;  1.047198e+00
	.area XINIT   (CODE)
	.area CABS    (ABS,CODE)
