                              1 ;--------------------------------------------------------
                              2 ; File Created by SDCC : free open source ANSI-C Compiler
                              3 ; Version 3.3.1 #8898 (Nov 27 2013) (Linux)
                              4 ; This file was generated Wed Nov 27 12:28:18 2013
                              5 ;--------------------------------------------------------
                              6 	.module _fsdiv
                              7 	.optsdcc -mtlcs90
                              8 	
                              9 ;--------------------------------------------------------
                             10 ; Public variables in this module
                             11 ;--------------------------------------------------------
                             12 	.globl ___fsdiv
                             13 ;--------------------------------------------------------
                             14 ; ram data
                             15 ;--------------------------------------------------------
                             16 	.area _DATA
                             17 ;--------------------------------------------------------
                             18 ; ram data
                             19 ;--------------------------------------------------------
                             20 	.area _INITIALIZED
                             21 ;--------------------------------------------------------
                             22 ; absolute external ram data
                             23 ;--------------------------------------------------------
                             24 	.area _DABS (ABS)
                             25 ;--------------------------------------------------------
                             26 ; global & static initialisations
                             27 ;--------------------------------------------------------
                             28 	.area _HOME
                             29 	.area _GSINIT
                             30 	.area _GSFINAL
                             31 	.area _GSINIT
                             32 ;--------------------------------------------------------
                             33 ; Home
                             34 ;--------------------------------------------------------
                             35 	.area _HOME
                             36 ;../_fsdiv.c:274: float __fsdiv (float a1, float a2)
                             37 ;	---------------------------------
                             38 ; Function __fsdiv
                             39 ; ---------------------------------
   0000                      40 ___fsdiv_start::
   0000                      41 ___fsdiv:
   0000 54            [ 4]   42 	push	ix
   0001 3C 00 00      [ 4]   43 	ld	ix,#0
   0004 FE 14         [ 7]   44 	add	ix,sp
   0006 16 DD FF      [ 7]   45 	add	sp, #-35
                             46 ;../_fsdiv.c:283: fl1.f = a1;
   0009 3A 17 00      [13]   47 	ld	hl,#0x0017
   000C FE 70         [ 7]   48 	add	hl,sp
   000E 08            [ 4]   49 	ex	de,hl
   000F 3A 27 00      [13]   50 	ld	hl, #0x0027
   0012 FE 70         [ 7]   51 	add	hl, sp
   0014 38 04 00      [12]   52 	ld	bc, #0x0004
   0017 FE 59         [ 7]   53 	ldir
                             54 ;../_fsdiv.c:284: fl2.f = a2;
   0019 3A 13 00      [13]   55 	ld	hl,#0x0013
   001C FE 70         [ 7]   56 	add	hl,sp
   001E 08            [ 4]   57 	ex	de,hl
   001F 3A 2B 00      [13]   58 	ld	hl, #0x002B
   0022 FE 70         [ 7]   59 	add	hl, sp
   0024 38 04 00      [12]   60 	ld	bc, #0x0004
   0027 FE 59         [ 7]   61 	ldir
                             62 ;../_fsdiv.c:287: exp = EXP (fl1.l) ;
   0029 3A 17 00      [13]   63 	ld	hl,#0x0017
   002C FE 70         [ 7]   64 	add	hl,sp
   002E E2 2B         [10]   65 	ld	e,(hl)
   0030 92            [ 4]   66 	inc	hl
   0031 E2 2A         [10]   67 	ld	d,(hl)
   0033 92            [ 4]   68 	inc	hl
   0034 E2 29         [10]   69 	ld	c,(hl)
   0036 92            [ 4]   70 	inc	hl
   0037 E2 28         [10]   71 	ld	b,(hl)
   0039 36 17         [10]   72 	ld	a,#0x17
   003B                      73 00164$:
   003B F8 A7         [11]   74 	srl	b
   003D F9 A3         [ 6]   75 	rr	c
   003F FA A3         [10]   76 	rr	d
   0041 FB A3         [ 4]   77 	rr	e
   0043 8E            [ 7]   78 	dec	a
   0044 CE F5         [ 7]   79 	jr	NZ,00164$
   0046 F4 DE 23      [17]   80 	ld	-34 (ix), e
   0049 F4 DF 37 00   [17]   81 	ld	-33 (ix), #0x00
                             82 ;../_fsdiv.c:288: exp -= EXP (fl2.l);
   004D 3A 13 00      [13]   83 	ld	hl,#0x0013
   0050 FE 70         [ 7]   84 	add	hl,sp
   0052 E2 2B         [10]   85 	ld	e,(hl)
   0054 92            [ 4]   86 	inc	hl
   0055 E2 2A         [10]   87 	ld	d,(hl)
   0057 92            [ 4]   88 	inc	hl
   0058 E2 29         [10]   89 	ld	c,(hl)
   005A 92            [ 4]   90 	inc	hl
   005B E2 28         [10]   91 	ld	b,(hl)
   005D 36 17         [10]   92 	ld	a,#0x17
   005F                      93 00166$:
   005F F8 A7         [11]   94 	srl	b
   0061 F9 A3         [ 6]   95 	rr	c
   0063 FA A3         [10]   96 	rr	d
   0065 FB A3         [ 4]   97 	rr	e
   0067 8E            [ 7]   98 	dec	a
   0068 CE F5         [ 7]   99 	jr	NZ,00166$
   006A F4 FC 23      [17]  100 	ld	-4 (ix),e
   006D F4 FD 37 00   [17]  101 	ld	-3 (ix),#0x00
   0071 F4 FE 37 00   [17]  102 	ld	-2 (ix),#0x00
   0075 F4 FF 37 00   [17]  103 	ld	-1 (ix),#0x00
   0079 F0 DE 2D      [11]  104 	ld	l,-34 (ix)
   007C F0 DF 2C      [11]  105 	ld	h,-33 (ix)
   007F F0 DF 2E      [11]  106 	ld	a,-33 (ix)
   0082 A2            [ 4]  107 	rla
   0083 FE 63         [ 7]  108 	sbc	a, a
   0085 29            [11]  109 	ld	c,a
   0086 28            [12]  110 	ld	b,a
   0087 25            [ 4]  111 	ld	a,l
   0088 F0 FC 62      [11]  112 	sub	a, -4 (ix)
   008B 2D            [ 4]  113 	ld	l,a
   008C 24            [ 4]  114 	ld	a,h
   008D F0 FD 63      [11]  115 	sbc	a, -3 (ix)
   0090 2C            [ 4]  116 	ld	h,a
   0091 21            [10]  117 	ld	a,c
   0092 F0 FE 63      [11]  118 	sbc	a, -2 (ix)
   0095 20            [12]  119 	ld	a,b
   0096 F0 FF 63      [11]  120 	sbc	a, -1 (ix)
   0099 F4 DE 25      [17]  121 	ld	-34 (ix),l
   009C F4 DF 24      [17]  122 	ld	-33 (ix),h
                            123 ;../_fsdiv.c:289: exp += EXCESS;
   009F F0 DE 2E      [11]  124 	ld	a,-34 (ix)
   00A2 68 7E         [ 4]  125 	add	a, #0x7E
   00A4 F4 DE 26      [17]  126 	ld	-34 (ix),a
   00A7 F0 DF 2E      [11]  127 	ld	a,-33 (ix)
   00AA 69 00         [ 4]  128 	adc	a, #0x00
   00AC F4 DF 26      [17]  129 	ld	-33 (ix),a
                            130 ;../_fsdiv.c:292: sign = SIGN (fl1.l) ^ SIGN (fl2.l);
   00AF 3A 17 00      [13]  131 	ld	hl,#0x0017
   00B2 FE 70         [ 7]  132 	add	hl,sp
   00B4 E2 2B         [10]  133 	ld	e,(hl)
   00B6 92            [ 4]  134 	inc	hl
   00B7 E2 2A         [10]  135 	ld	d,(hl)
   00B9 92            [ 4]  136 	inc	hl
   00BA E2 29         [10]  137 	ld	c,(hl)
   00BC 92            [ 4]  138 	inc	hl
   00BD E2 2E         [10]  139 	ld	a, (hl)
   00BF FE A0         [ 7]  140 	rlc	a
   00C1 6C 01         [ 4]  141 	and	a,#0x01
   00C3 F4 FC 26      [17]  142 	ld	-4 (ix),a
   00C6 3A 13 00      [13]  143 	ld	hl,#0x0013
   00C9 FE 70         [ 7]  144 	add	hl,sp
   00CB E2 2B         [10]  145 	ld	e,(hl)
   00CD 92            [ 4]  146 	inc	hl
   00CE E2 2A         [10]  147 	ld	d,(hl)
   00D0 92            [ 4]  148 	inc	hl
   00D1 E2 29         [10]  149 	ld	c,(hl)
   00D3 92            [ 4]  150 	inc	hl
   00D4 E2 2E         [10]  151 	ld	a, (hl)
   00D6 FE A0         [ 7]  152 	rlc	a
   00D8 6C 01         [ 4]  153 	and	a,#0x01
   00DA F0 FC 65      [11]  154 	xor	a, -4 (ix)
   00DD F4 DD 26      [17]  155 	ld	-35 (ix),a
                            156 ;../_fsdiv.c:295: if (!fl2.l)
   00E0 3A 13 00      [13]  157 	ld	hl,#0x0013
   00E3 FE 70         [ 7]  158 	add	hl,sp
   00E5 E2 29         [10]  159 	ld	c,(hl)
   00E7 92            [ 4]  160 	inc	hl
   00E8 E2 28         [10]  161 	ld	b,(hl)
   00EA 92            [ 4]  162 	inc	hl
   00EB E2 2B         [10]  163 	ld	e,(hl)
   00ED 92            [ 4]  164 	inc	hl
   00EE E2 2E         [10]  165 	ld	a, (hl)
   00F0 FB 66         [ 4]  166 	or	a, e
   00F2 F8 66         [11]  167 	or	a, b
   00F4 F9 66         [ 6]  168 	or	a,c
   00F6 EBr25r01 CE   [ 4]  169 	jp	NZ,00102$
                            170 ;../_fsdiv.c:297: fl2.l = 0x7FC00000;
   00FA 3A 13 00      [13]  171 	ld	hl,#0x0013
   00FD FE 70         [ 7]  172 	add	hl,sp
   00FF FE 65         [ 7]  173 	xor	a, a
   0101 EA 26         [10]  174 	ld	(hl), a
   0103 92            [ 4]  175 	inc	hl
   0104 EA 26         [10]  176 	ld	(hl), a
   0106 92            [ 4]  177 	inc	hl
   0107 EA 37 C0      [10]  178 	ld	(hl),#0xC0
   010A 92            [ 4]  179 	inc	hl
   010B EA 37 7F      [10]  180 	ld	(hl),#0x7F
                            181 ;../_fsdiv.c:298: return (fl2.f);
   010E 3A 13 00      [13]  182 	ld	hl,#0x0013
   0111 FE 70         [ 7]  183 	add	hl,sp
   0113 E2 28         [10]  184 	ld	b,(hl)
   0115 92            [ 4]  185 	inc	hl
   0116 E2 29         [10]  186 	ld	c,(hl)
   0118 92            [ 4]  187 	inc	hl
   0119 E2 2B         [10]  188 	ld	e,(hl)
   011B 92            [ 4]  189 	inc	hl
   011C E2 2A         [10]  190 	ld	d,(hl)
   011E F8 35         [11]  191 	ld	l,b
   0120 F9 34         [ 6]  192 	ld	h,c
   0122 1ArCBr03      [ 7]  193 	jp	00118$
   0125                     194 00102$:
                            195 ;../_fsdiv.c:302: if (!fl1.l)
   0125 3A 17 00      [13]  196 	ld	hl,#0x0017
   0128 FE 70         [ 7]  197 	add	hl,sp
   012A E2 2A         [10]  198 	ld	d,(hl)
   012C 92            [ 4]  199 	inc	hl
   012D E2 2B         [10]  200 	ld	e,(hl)
   012F 92            [ 4]  201 	inc	hl
   0130 E2 29         [10]  202 	ld	c,(hl)
   0132 92            [ 4]  203 	inc	hl
   0133 E2 2E         [10]  204 	ld	a, (hl)
   0135 F9 66         [ 6]  205 	or	a, c
   0137 FB 66         [ 4]  206 	or	a, e
   0139 FA 66         [10]  207 	or	a,d
   013B CE 0A         [ 7]  208 	jr	NZ,00104$
                            209 ;../_fsdiv.c:303: return (0);
   013D 3A 00 00      [13]  210 	ld	hl,#0x0000
   0140 FD 33               211 	ld	e,l
   0142 FC 32         [17]  212 	ld	d,h
   0144 1ArCBr03      [ 7]  213 	jp	00118$
   0147                     214 00104$:
                            215 ;../_fsdiv.c:306: mant1 = MANT (fl1.l);
   0147 3A 17 00      [13]  216 	ld	hl,#0x0017
   014A FE 70         [ 7]  217 	add	hl,sp
   014C E2 2B         [10]  218 	ld	e,(hl)
   014E 92            [ 4]  219 	inc	hl
   014F E2 2A         [10]  220 	ld	d,(hl)
   0151 92            [ 4]  221 	inc	hl
   0152 E2 29         [10]  222 	ld	c,(hl)
   0154 92            [ 4]  223 	inc	hl
   0155 E2 28         [10]  224 	ld	b,(hl)
   0157 F9 B7         [ 6]  225 	res	7, c
   0159 34 00         [11]  226 	ld	h,#0x00
   015B F4 E4 23      [17]  227 	ld	-28 (ix),e
   015E F4 E5 22      [17]  228 	ld	-27 (ix),d
   0161 21            [10]  229 	ld	a,c
   0162 FE BF         [ 7]  230 	set	7, a
   0164 F4 E6 26      [17]  231 	ld	-26 (ix),a
   0167 F4 E7 24      [17]  232 	ld	-25 (ix),h
                            233 ;../_fsdiv.c:307: mant2 = MANT (fl2.l);
   016A 3A 13 00      [13]  234 	ld	hl,#0x0013
   016D FE 70         [ 7]  235 	add	hl,sp
   016F E2 2B         [10]  236 	ld	e,(hl)
   0171 92            [ 4]  237 	inc	hl
   0172 E2 2A         [10]  238 	ld	d,(hl)
   0174 92            [ 4]  239 	inc	hl
   0175 E2 29         [10]  240 	ld	c,(hl)
   0177 92            [ 4]  241 	inc	hl
   0178 E2 28         [10]  242 	ld	b,(hl)
   017A F9 B7         [ 6]  243 	res	7, c
   017C 34 00         [11]  244 	ld	h,#0x00
   017E F4 E0 23      [17]  245 	ld	-32 (ix),e
   0181 F4 E1 22      [17]  246 	ld	-31 (ix),d
   0184 21            [10]  247 	ld	a,c
   0185 FE BF         [ 7]  248 	set	7, a
   0187 F4 E2 26      [17]  249 	ld	-30 (ix),a
   018A F4 E3 24      [17]  250 	ld	-29 (ix),h
                            251 ;../_fsdiv.c:310: if (mant1 < mant2)
   018D F0 E4 2E      [11]  252 	ld	a,-28 (ix)
   0190 F0 E0 62      [11]  253 	sub	a, -32 (ix)
   0193 F0 E5 2E      [11]  254 	ld	a,-27 (ix)
   0196 F0 E1 63      [11]  255 	sbc	a, -31 (ix)
   0199 F0 E6 2E      [11]  256 	ld	a,-26 (ix)
   019C F0 E2 63      [11]  257 	sbc	a, -30 (ix)
   019F F0 E7 2E      [11]  258 	ld	a,-25 (ix)
   01A2 F0 E3 63      [11]  259 	sbc	a, -29 (ix)
   01A5 EBrABr01 CC   [ 4]  260 	jp	PO, 00168$
   01A9 6D 80         [ 4]  261 	xor	a, #0x80
   01AB                     262 00168$:
   01AB EBrC5r01 CD   [ 4]  263 	jp	P,00106$
                            264 ;../_fsdiv.c:312: mant1 <<= 1;
   01AF 56            [ 7]  265 	push	af
   01B0 5E            [ 7]  266 	pop	af
   01B1 30 01         [12]  267 	ld	b,#0x01
   01B3 E7 E4 A4      [11]  268 	sla	-28 (ix)
   01B6 E7 E5 A2      [11]  269 	rl	-27 (ix)
   01B9 E7 E6 A2      [11]  270 	rl	-26 (ix)
   01BC E7 E7 A2      [11]  271 	rl	-25 (ix)
                            272 ;../_fsdiv.c:313: exp--;
   01BF F2 01 8F      [10]  273 	dec	1 (sp)
   01C2 F2 01 4A      [10]  274 	ld	hl, 1 (sp)
   01C5                     275 00106$:
                            276 ;../_fsdiv.c:317: mask = 0x1000000;
   01C5 F4 E8 37 00   [17]  277 	ld	-24 (ix),#0x00
   01C9 F4 E9 37 00   [17]  278 	ld	-23 (ix),#0x00
   01CD F4 EA 37 00   [17]  279 	ld	-22 (ix),#0x00
   01D1 F4 EB 37 01   [17]  280 	ld	-21 (ix),#0x01
                            281 ;../_fsdiv.c:318: result = 0;
   01D5 FE 65         [ 7]  282 	xor	a, a
   01D7 F4 EC 26      [17]  283 	ld	-20 (ix),a
   01DA F4 ED 26      [17]  284 	ld	-19 (ix),a
   01DD F4 EE 26      [17]  285 	ld	-18 (ix),a
   01E0 F4 EF 26      [17]  286 	ld	-17 (ix),a
                            287 ;../_fsdiv.c:319: while (mask)
   01E3                     288 00109$:
   01E3 F0 EB 2E      [11]  289 	ld	a,-21 (ix)
   01E6 F0 EA 66      [11]  290 	or	a, -22 (ix)
   01E9 F0 E9 66      [11]  291 	or	a, -23 (ix)
   01EC F0 E8 66      [11]  292 	or	a,-24 (ix)
   01EF EBr86r02 C6   [ 4]  293 	jp	Z,00111$
                            294 ;../_fsdiv.c:321: if (mant1 >= mant2)
   01F3 F0 E4 2E      [11]  295 	ld	a,-28 (ix)
   01F6 F0 E0 62      [11]  296 	sub	a, -32 (ix)
   01F9 F0 E5 2E      [11]  297 	ld	a,-27 (ix)
   01FC F0 E1 63      [11]  298 	sbc	a, -31 (ix)
   01FF F0 E6 2E      [11]  299 	ld	a,-26 (ix)
   0202 F0 E2 63      [11]  300 	sbc	a, -30 (ix)
   0205 F0 E7 2E      [11]  301 	ld	a,-25 (ix)
   0208 F0 E3 63      [11]  302 	sbc	a, -29 (ix)
   020B EBr11r02 CC   [ 4]  303 	jp	PO, 00171$
   020F 6D 80         [ 4]  304 	xor	a, #0x80
   0211                     305 00171$:
   0211 EBr65r02 C5   [ 4]  306 	jp	M,00108$
                            307 ;../_fsdiv.c:323: result |= mask;
   0215 F0 EC 2D      [11]  308 	ld	l,-20 (ix)
   0218 F0 ED 2C      [11]  309 	ld	h,-19 (ix)
   021B F0 EE 2A      [11]  310 	ld	d,-18 (ix)
   021E F0 EF 2B      [11]  311 	ld	e,-17 (ix)
   0221 25            [ 4]  312 	ld	a,l
   0222 F0 E8 66      [11]  313 	or	a, -24 (ix)
   0225 2D            [ 4]  314 	ld	l,a
   0226 24            [ 4]  315 	ld	a,h
   0227 F0 E9 66      [11]  316 	or	a, -23 (ix)
   022A 2C            [ 4]  317 	ld	h,a
   022B 22            [16]  318 	ld	a,d
   022C F0 EA 66      [11]  319 	or	a, -22 (ix)
   022F 29            [11]  320 	ld	c,a
   0230 23            [ 6]  321 	ld	a,e
   0231 F0 EB 66      [11]  322 	or	a, -21 (ix)
   0234 28            [12]  323 	ld	b,a
   0235 F4 EC 25      [17]  324 	ld	-20 (ix),l
   0238 F4 ED 24      [17]  325 	ld	-19 (ix),h
   023B F4 EE 21      [17]  326 	ld	-18 (ix),c
   023E F4 EF 20      [17]  327 	ld	-17 (ix),b
                            328 ;../_fsdiv.c:324: mant1 -= mant2;
   0241 F0 E4 2E      [11]  329 	ld	a,-28 (ix)
   0244 F0 E0 62      [11]  330 	sub	a, -32 (ix)
   0247 F4 E4 26      [17]  331 	ld	-28 (ix),a
   024A F0 E5 2E      [11]  332 	ld	a,-27 (ix)
   024D F0 E1 63      [11]  333 	sbc	a, -31 (ix)
   0250 F4 E5 26      [17]  334 	ld	-27 (ix),a
   0253 F0 E6 2E      [11]  335 	ld	a,-26 (ix)
   0256 F0 E2 63      [11]  336 	sbc	a, -30 (ix)
   0259 F4 E6 26      [17]  337 	ld	-26 (ix),a
   025C F0 E7 2E      [11]  338 	ld	a,-25 (ix)
   025F F0 E3 63      [11]  339 	sbc	a, -29 (ix)
   0262 F4 E7 26      [17]  340 	ld	-25 (ix),a
   0265                     341 00108$:
                            342 ;../_fsdiv.c:326: mant1 <<= 1;
   0265 56            [ 7]  343 	push	af
   0266 5E            [ 7]  344 	pop	af
   0267 E7 E4 A4      [11]  345 	sla	-28 (ix)
   026A E7 E5 A2      [11]  346 	rl	-27 (ix)
   026D E7 E6 A2      [11]  347 	rl	-26 (ix)
   0270 E7 E7 A2      [11]  348 	rl	-25 (ix)
                            349 ;../_fsdiv.c:327: mask >>= 1;
   0273 56            [ 7]  350 	push	af
   0274 5E            [ 7]  351 	pop	af
   0275 30 01         [12]  352 	ld	b,#0x01
   0277 E7 EB A7      [11]  353 	srl	-21 (ix)
   027A E7 EA A3      [11]  354 	rr	-22 (ix)
   027D E7 E9 A3      [11]  355 	rr	-23 (ix)
   0280 E7 E8 A3      [11]  356 	rr	-24 (ix)
   0283 1ArE3r01      [ 7]  357 	jp	00109$
   0286                     358 00111$:
                            359 ;../_fsdiv.c:331: result += 1;
   0286 F0 EC 87      [11]  360 	inc	-20 (ix)
   0289 CE 0D         [ 7]  361 	jr	NZ,00176$
   028B F0 ED 87      [11]  362 	inc	-19 (ix)
   028E CE 08         [ 7]  363 	jr	NZ,00176$
   0290 F0 EE 87      [11]  364 	inc	-18 (ix)
   0293 CE 03         [ 7]  365 	jr	NZ,00176$
   0295 F0 EF 87      [11]  366 	inc	-17 (ix)
   0298                     367 00176$:
                            368 ;../_fsdiv.c:334: exp++;
   0298 F0 DE 87      [11]  369 	inc	-34 (ix)
   029B CE 03         [ 7]  370 	jr	NZ,00177$
   029D F0 DF 87      [11]  371 	inc	-33 (ix)
   02A0                     372 00177$:
                            373 ;../_fsdiv.c:335: result >>= 1;
   02A0 56            [ 7]  374 	push	af
   02A1 5E            [ 7]  375 	pop	af
   02A2 E7 EF A5      [11]  376 	sra	-17 (ix)
   02A5 E7 EE A3      [11]  377 	rr	-18 (ix)
   02A8 E7 ED A3      [11]  378 	rr	-19 (ix)
   02AB E7 EC A3      [11]  379 	rr	-20 (ix)
                            380 ;../_fsdiv.c:337: result &= ~HIDDEN;
   02AE F0 EC 2C      [11]  381 	ld	h,-20 (ix)
   02B1 F0 ED 2D      [11]  382 	ld	l,-19 (ix)
   02B4 F0 EE 2A      [11]  383 	ld	d,-18 (ix)
   02B7 F0 EF 2B      [11]  384 	ld	e,-17 (ix)
   02BA F4 EC 24      [17]  385 	ld	-20 (ix),h
   02BD F4 ED 25      [17]  386 	ld	-19 (ix),l
   02C0 22            [16]  387 	ld	a,d
   02C1 6C 7F         [ 4]  388 	and	a, #0x7F
   02C3 F4 EE 26      [17]  389 	ld	-18 (ix),a
   02C6 F4 EF 23      [17]  390 	ld	-17 (ix),e
                            391 ;../_fsdiv.c:340: if (exp >= 0x100)
   02C9 F0 DF 2E      [11]  392 	ld	a,-33 (ix)
   02CC 6D 80         [ 4]  393 	xor	a, #0x80
   02CE 6A 81         [ 4]  394 	sub	a, #0x81
   02D0 EBr02r03 C7   [ 4]  395 	jp	C,00116$
                            396 ;../_fsdiv.c:341: fl1.l = (sign ? SIGNBIT : 0) | __INFINITY;
   02D4 3A 17 00      [13]  397 	ld	hl,#0x0017
   02D7 FE 70         [ 7]  398 	add	hl,sp
   02D9 F0 DD 2E      [11]  399 	ld	a,-35 (ix)
   02DC FE 66         [ 7]  400 	or	a, a
   02DE C6 08         [ 7]  401 	jr	Z,00120$
   02E0 38 00 00      [12]  402 	ld	bc,#0x0000
   02E3 39 00 80      [11]  403 	ld	de,#0x8000
   02E6 C8 06         [11]  404 	jr	00121$
   02E8                     405 00120$:
   02E8 38 00 00      [12]  406 	ld	bc,#0x0000
   02EB 39 00 00      [11]  407 	ld	de,#0x0000
   02EE                     408 00121$:
   02EE FB BF         [ 4]  409 	set	7, e
   02F0 22            [16]  410 	ld	a,d
   02F1 6E 7F         [ 7]  411 	or	a, #0x7F
   02F3 2A            [16]  412 	ld	d,a
   02F4 EA 21         [10]  413 	ld	(hl),c
   02F6 92            [ 4]  414 	inc	hl
   02F7 EA 20         [10]  415 	ld	(hl),b
   02F9 92            [ 4]  416 	inc	hl
   02FA EA 23         [10]  417 	ld	(hl),e
   02FC 92            [ 4]  418 	inc	hl
   02FD EA 22         [10]  419 	ld	(hl),d
   02FF 1ArB7r03      [ 7]  420 	jp	00117$
   0302                     421 00116$:
                            422 ;../_fsdiv.c:342: else if (exp < 0)
   0302 F0 DF AF      [11]  423 	bit	7, -33 (ix)
   0305 C6 17         [ 7]  424 	jr	Z,00113$
                            425 ;../_fsdiv.c:343: fl1.l = 0;
   0307 3A 17 00      [13]  426 	ld	hl,#0x0017
   030A FE 70         [ 7]  427 	add	hl,sp
   030C FE 65         [ 7]  428 	xor	a, a
   030E EA 26         [10]  429 	ld	(hl), a
   0310 92            [ 4]  430 	inc	hl
   0311 EA 26         [10]  431 	ld	(hl), a
   0313 92            [ 4]  432 	inc	hl
   0314 FE 65         [ 7]  433 	xor	a, a
   0316 EA 26         [10]  434 	ld	(hl), a
   0318 92            [ 4]  435 	inc	hl
   0319 EA 26         [10]  436 	ld	(hl), a
   031B 1ArB7r03      [ 7]  437 	jp	00117$
   031E                     438 00113$:
                            439 ;../_fsdiv.c:345: fl1.l = PACK (sign ? SIGNBIT : 0 , exp, result);
   031E 3A 17 00      [13]  440 	ld	hl,#0x0017
   0321 FE 70         [ 7]  441 	add	hl,sp
   0323 F6 1F 42      [ 7]  442 	ld	31 (sp), hl
   0326 F0 DD 2E      [11]  443 	ld	a,-35 (ix)
   0329 FE 66         [ 7]  444 	or	a, a
   032B C6 12         [ 7]  445 	jr	Z,00122$
   032D F4 F8 37 00   [17]  446 	ld	-8 (ix),#0x00
   0331 F4 F9 37 00   [17]  447 	ld	-7 (ix),#0x00
   0335 F4 FA 37 00   [17]  448 	ld	-6 (ix),#0x00
   0339 F4 FB 37 80   [17]  449 	ld	-5 (ix),#0x80
   033D C8 0E         [11]  450 	jr	00123$
   033F                     451 00122$:
   033F FE 65         [ 7]  452 	xor	a, a
   0341 F4 F8 26      [17]  453 	ld	-8 (ix),a
   0344 F4 F9 26      [17]  454 	ld	-7 (ix),a
   0347 F4 FA 26      [17]  455 	ld	-6 (ix),a
   034A F4 FB 26      [17]  456 	ld	-5 (ix),a
   034D                     457 00123$:
   034D F0 DE 2D      [11]  458 	ld	l,-34 (ix)
   0350 F0 DF 2C      [11]  459 	ld	h,-33 (ix)
   0353 F0 DF 2E      [11]  460 	ld	a,-33 (ix)
   0356 A2            [ 4]  461 	rla
   0357 FE 63         [ 7]  462 	sbc	a, a
   0359 2B            [ 6]  463 	ld	e,a
   035A 2A            [16]  464 	ld	d,a
   035B 30 17         [12]  465 	ld	b,#0x17
   035D                     466 00180$:
   035D FA 70         [10]  467 	add	hl, hl
   035F FB A2         [ 4]  468 	rl	e
   0361 FA A2         [10]  469 	rl	d
   0363 18 F8         [12]  470 	djnz	00180$
   0365 F0 F8 2E      [11]  471 	ld	a,-8 (ix)
   0368 FD 66         [19]  472 	or	a, l
   036A F4 F8 26      [17]  473 	ld	-8 (ix),a
   036D F0 F9 2E      [11]  474 	ld	a,-7 (ix)
   0370 FC 66         [17]  475 	or	a, h
   0372 F4 F9 26      [17]  476 	ld	-7 (ix),a
   0375 F0 FA 2E      [11]  477 	ld	a,-6 (ix)
   0378 FB 66         [ 4]  478 	or	a, e
   037A F4 FA 26      [17]  479 	ld	-6 (ix),a
   037D F0 FB 2E      [11]  480 	ld	a,-5 (ix)
   0380 FA 66         [10]  481 	or	a, d
   0382 F4 FB 26      [17]  482 	ld	-5 (ix),a
   0385 F0 EC 2B      [11]  483 	ld	e,-20 (ix)
   0388 F0 ED 2A      [11]  484 	ld	d,-19 (ix)
   038B F0 EE 2D      [11]  485 	ld	l,-18 (ix)
   038E F0 EF 2C      [11]  486 	ld	h,-17 (ix)
   0391 F0 F8 2E      [11]  487 	ld	a,-8 (ix)
   0394 FB 66         [ 4]  488 	or	a, e
   0396 2B            [ 6]  489 	ld	e,a
   0397 F0 F9 2E      [11]  490 	ld	a,-7 (ix)
   039A FA 66         [10]  491 	or	a, d
   039C 2A            [16]  492 	ld	d,a
   039D F0 FA 2E      [11]  493 	ld	a,-6 (ix)
   03A0 FD 66         [19]  494 	or	a, l
   03A2 28            [12]  495 	ld	b,a
   03A3 F0 FB 2E      [11]  496 	ld	a,-5 (ix)
   03A6 FC 66         [17]  497 	or	a, h
   03A8 29            [11]  498 	ld	c,a
   03A9 F2 1F 4A      [10]  499 	ld	hl, 31 (sp)
   03AC EA 23         [10]  500 	ld	(hl),e
   03AE 92            [ 4]  501 	inc	hl
   03AF EA 22         [10]  502 	ld	(hl),d
   03B1 92            [ 4]  503 	inc	hl
   03B2 EA 20         [10]  504 	ld	(hl),b
   03B4 92            [ 4]  505 	inc	hl
   03B5 EA 21         [10]  506 	ld	(hl),c
   03B7                     507 00117$:
                            508 ;../_fsdiv.c:346: return (fl1.f);
   03B7 3A 17 00      [13]  509 	ld	hl,#0x0017
   03BA FE 70         [ 7]  510 	add	hl,sp
   03BC E2 28         [10]  511 	ld	b,(hl)
   03BE 92            [ 4]  512 	inc	hl
   03BF E2 29         [10]  513 	ld	c,(hl)
   03C1 92            [ 4]  514 	inc	hl
   03C2 E2 2B         [10]  515 	ld	e,(hl)
   03C4 92            [ 4]  516 	inc	hl
   03C5 E2 2A         [10]  517 	ld	d,(hl)
   03C7 F8 35         [11]  518 	ld	l,b
   03C9 F9 34         [ 6]  519 	ld	h,c
   03CB                     520 00118$:
   03CB FC 3E         [17]  521 	ld	sp, ix
   03CD 5C            [ 4]  522 	pop	ix
   03CE 1E            [ 7]  523 	ret
   03CF                     524 ___fsdiv_end::
                            525 	.area _HOME
                            526 ;--------------------------------------------------------
                            527 ; code
                            528 ;--------------------------------------------------------
                            529 	.area _CODE
                            530 	.area _CODE
                            531 	.area _INITIALIZER
                            532 	.area _CABS (ABS)
