                              1 ;--------------------------------------------------------
                              2 ; File Created by SDCC : free open source ANSI-C Compiler
                              3 ; Version 3.3.1 #8898 (Nov 27 2013) (Linux)
                              4 ; This file was generated Wed Nov 27 12:28:19 2013
                              5 ;--------------------------------------------------------
                              6 	.module _fsgt
                              7 	.optsdcc -mtlcs90
                              8 	
                              9 ;--------------------------------------------------------
                             10 ; Public variables in this module
                             11 ;--------------------------------------------------------
                             12 	.globl ___fsgt
                             13 ;--------------------------------------------------------
                             14 ; ram data
                             15 ;--------------------------------------------------------
                             16 	.area _DATA
                             17 ;--------------------------------------------------------
                             18 ; ram data
                             19 ;--------------------------------------------------------
                             20 	.area _INITIALIZED
                             21 ;--------------------------------------------------------
                             22 ; absolute external ram data
                             23 ;--------------------------------------------------------
                             24 	.area _DABS (ABS)
                             25 ;--------------------------------------------------------
                             26 ; global & static initialisations
                             27 ;--------------------------------------------------------
                             28 	.area _HOME
                             29 	.area _GSINIT
                             30 	.area _GSFINAL
                             31 	.area _GSINIT
                             32 ;--------------------------------------------------------
                             33 ; Home
                             34 ;--------------------------------------------------------
                             35 	.area _HOME
                             36 ;../_fsgt.c:108: char __fsgt (float a1, float a2)
                             37 ;	---------------------------------
                             38 ; Function __fsgt
                             39 ; ---------------------------------
   0000                      40 ___fsgt_start::
   0000                      41 ___fsgt:
   0000 54            [ 4]   42 	push	ix
   0001 3C 00 00      [ 4]   43 	ld	ix,#0
   0004 FE 14         [ 7]   44 	add	ix,sp
   0006 16 F4 FF      [ 7]   45 	add	sp, #-12
                             46 ;../_fsgt.c:112: fl1.f = a1;
   0009 3A 04 00      [13]   47 	ld	hl,#0x0004
   000C FE 70         [ 7]   48 	add	hl,sp
   000E 08            [ 4]   49 	ex	de,hl
   000F 3A 10 00      [13]   50 	ld	hl, #0x0010
   0012 FE 70         [ 7]   51 	add	hl, sp
   0014 38 04 00      [12]   52 	ld	bc, #0x0004
   0017 FE 59         [ 7]   53 	ldir
                             54 ;../_fsgt.c:113: fl2.f = a2;
   0019 3A 00 00      [13]   55 	ld	hl,#0x0000
   001C FE 70         [ 7]   56 	add	hl,sp
   001E 08            [ 4]   57 	ex	de,hl
   001F 3A 14 00      [13]   58 	ld	hl, #0x0014
   0022 FE 70         [ 7]   59 	add	hl, sp
   0024 38 04 00      [12]   60 	ld	bc, #0x0004
   0027 FE 59         [ 7]   61 	ldir
                             62 ;../_fsgt.c:115: if (((fl1.l | fl2.l) & 0x7FFFFFFF) == 0)
   0029 3A 04 00      [13]   63 	ld	hl,#0x0004
   002C FE 70         [ 7]   64 	add	hl,sp
   002E 08            [ 4]   65 	ex	de,hl
   002F 3A 08 00      [13]   66 	ld	hl, #0x0008
   0032 FE 70         [ 7]   67 	add	hl, sp
   0034 08            [ 4]   68 	ex	de, hl
   0035 38 04 00      [12]   69 	ld	bc, #0x0004
   0038 FE 59         [ 7]   70 	ldir
   003A 3A 00 00      [13]   71 	ld	hl,#0x0000
   003D FE 70         [ 7]   72 	add	hl,sp
   003F E2 2B         [10]   73 	ld	e,(hl)
   0041 92            [ 4]   74 	inc	hl
   0042 E2 2A         [10]   75 	ld	d,(hl)
   0044 92            [ 4]   76 	inc	hl
   0045 E2 29         [10]   77 	ld	c,(hl)
   0047 92            [ 4]   78 	inc	hl
   0048 E2 28         [10]   79 	ld	b,(hl)
   004A F0 FC 2E      [11]   80 	ld	a,-4 (ix)
   004D FB 66         [ 4]   81 	or	a, e
   004F 2B            [ 6]   82 	ld	e,a
   0050 F0 FD 2E      [11]   83 	ld	a,-3 (ix)
   0053 FA 66         [10]   84 	or	a, d
   0055 2A            [16]   85 	ld	d,a
   0056 F0 FE 2E      [11]   86 	ld	a,-2 (ix)
   0059 F9 66         [ 6]   87 	or	a, c
   005B 2D            [ 4]   88 	ld	l,a
   005C F0 FF 2E      [11]   89 	ld	a,-1 (ix)
   005F F8 66         [11]   90 	or	a, b
   0061 2C            [ 4]   91 	ld	h,a
   0062 23            [ 6]   92 	ld	a,e
   0063 FE 66         [ 7]   93 	or	a,a
   0065 CE 0F         [ 7]   94 	jr	NZ,00102$
   0067 FA 66         [10]   95 	or	a,d
   0069 CE 0B         [ 7]   96 	jr	NZ,00102$
   006B FE 67         [ 7]   97 	cp	a, a
   006D FA 71         [10]   98 	adc	hl, hl
   006F CE 05         [ 7]   99 	jr	NZ,00102$
                            100 ;../_fsgt.c:116: return (0);
   0071 35 00         [11]  101 	ld	l,#0x00
   0073 1Ar28r01      [ 7]  102 	jp	00110$
   0076                     103 00102$:
                            104 ;../_fsgt.c:118: if (fl1.l<0 && fl2.l<0) {
   0076 3A 04 00      [13]  105 	ld	hl,#0x0004
   0079 FE 70         [ 7]  106 	add	hl,sp
   007B E2 2A         [10]  107 	ld	d,(hl)
   007D 92            [ 4]  108 	inc	hl
   007E E2 2B         [10]  109 	ld	e,(hl)
   0080 92            [ 4]  110 	inc	hl
   0081 E2 29         [10]  111 	ld	c,(hl)
   0083 92            [ 4]  112 	inc	hl
   0084 E2 2C         [10]  113 	ld	h,(hl)
   0086 FC AF         [17]  114 	bit	7, h
   0088 EBrE7r00 C6   [ 4]  115 	jp	Z,00106$
   008C 3A 00 00      [13]  116 	ld	hl,#0x0000
   008F FE 70         [ 7]  117 	add	hl,sp
   0091 E2 2A         [10]  118 	ld	d,(hl)
   0093 92            [ 4]  119 	inc	hl
   0094 E2 2B         [10]  120 	ld	e,(hl)
   0096 92            [ 4]  121 	inc	hl
   0097 E2 29         [10]  122 	ld	c,(hl)
   0099 92            [ 4]  123 	inc	hl
   009A E2 2C         [10]  124 	ld	h,(hl)
   009C FC AF         [17]  125 	bit	7, h
   009E EBrE7r00 C6   [ 4]  126 	jp	Z,00106$
                            127 ;../_fsgt.c:119: if (fl2.l > fl1.l)
   00A2 3A 00 00      [13]  128 	ld	hl,#0x0000
   00A5 FE 70         [ 7]  129 	add	hl,sp
   00A7 08            [ 4]  130 	ex	de,hl
   00A8 3A 08 00      [13]  131 	ld	hl, #0x0008
   00AB FE 70         [ 7]  132 	add	hl, sp
   00AD 08            [ 4]  133 	ex	de, hl
   00AE 38 04 00      [12]  134 	ld	bc, #0x0004
   00B1 FE 59         [ 7]  135 	ldir
   00B3 3A 04 00      [13]  136 	ld	hl,#0x0004
   00B6 FE 70         [ 7]  137 	add	hl,sp
   00B8 E2 2A         [10]  138 	ld	d,(hl)
   00BA 92            [ 4]  139 	inc	hl
   00BB E2 2B         [10]  140 	ld	e,(hl)
   00BD 92            [ 4]  141 	inc	hl
   00BE E2 29         [10]  142 	ld	c,(hl)
   00C0 92            [ 4]  143 	inc	hl
   00C1 E2 2C         [10]  144 	ld	h,(hl)
   00C3 22            [16]  145 	ld	a,d
   00C4 F0 FC 62      [11]  146 	sub	a, -4 (ix)
   00C7 23            [ 6]  147 	ld	a,e
   00C8 F0 FD 63      [11]  148 	sbc	a, -3 (ix)
   00CB 21            [10]  149 	ld	a,c
   00CC F0 FE 63      [11]  150 	sbc	a, -2 (ix)
   00CF 24            [ 4]  151 	ld	a,h
   00D0 F0 FF 63      [11]  152 	sbc	a, -1 (ix)
   00D3 EBrD9r00 CC   [ 4]  153 	jp	PO, 00134$
   00D7 6D 80         [ 4]  154 	xor	a, #0x80
   00D9                     155 00134$:
   00D9 EBrE2r00 CD   [ 4]  156 	jp	P,00104$
                            157 ;../_fsgt.c:120: return (1);
   00DD 35 01         [11]  158 	ld	l,#0x01
   00DF 1Ar28r01      [ 7]  159 	jp	00110$
   00E2                     160 00104$:
                            161 ;../_fsgt.c:121: return (0);
   00E2 35 00         [11]  162 	ld	l,#0x00
   00E4 1Ar28r01      [ 7]  163 	jp	00110$
   00E7                     164 00106$:
                            165 ;../_fsgt.c:124: if (fl1.l > fl2.l)
   00E7 3A 04 00      [13]  166 	ld	hl,#0x0004
   00EA FE 70         [ 7]  167 	add	hl,sp
   00EC 08            [ 4]  168 	ex	de,hl
   00ED 3A 08 00      [13]  169 	ld	hl, #0x0008
   00F0 FE 70         [ 7]  170 	add	hl, sp
   00F2 08            [ 4]  171 	ex	de, hl
   00F3 38 04 00      [12]  172 	ld	bc, #0x0004
   00F6 FE 59         [ 7]  173 	ldir
   00F8 3A 00 00      [13]  174 	ld	hl,#0x0000
   00FB FE 70         [ 7]  175 	add	hl,sp
   00FD E2 2A         [10]  176 	ld	d,(hl)
   00FF 92            [ 4]  177 	inc	hl
   0100 E2 2B         [10]  178 	ld	e,(hl)
   0102 92            [ 4]  179 	inc	hl
   0103 E2 29         [10]  180 	ld	c,(hl)
   0105 92            [ 4]  181 	inc	hl
   0106 E2 2C         [10]  182 	ld	h,(hl)
   0108 22            [16]  183 	ld	a,d
   0109 F0 FC 62      [11]  184 	sub	a, -4 (ix)
   010C 23            [ 6]  185 	ld	a,e
   010D F0 FD 63      [11]  186 	sbc	a, -3 (ix)
   0110 21            [10]  187 	ld	a,c
   0111 F0 FE 63      [11]  188 	sbc	a, -2 (ix)
   0114 24            [ 4]  189 	ld	a,h
   0115 F0 FF 63      [11]  190 	sbc	a, -1 (ix)
   0118 EBr1Er01 CC   [ 4]  191 	jp	PO, 00135$
   011C 6D 80         [ 4]  192 	xor	a, #0x80
   011E                     193 00135$:
   011E EBr26r01 CD   [ 4]  194 	jp	P,00109$
                            195 ;../_fsgt.c:125: return (1);
   0122 35 01         [11]  196 	ld	l,#0x01
   0124 C8 02         [11]  197 	jr	00110$
   0126                     198 00109$:
                            199 ;../_fsgt.c:126: return (0);
   0126 35 00         [11]  200 	ld	l,#0x00
   0128                     201 00110$:
   0128 FC 3E         [17]  202 	ld	sp, ix
   012A 5C            [ 4]  203 	pop	ix
   012B 1E            [ 7]  204 	ret
   012C                     205 ___fsgt_end::
                            206 	.area _HOME
                            207 ;--------------------------------------------------------
                            208 ; code
                            209 ;--------------------------------------------------------
                            210 	.area _CODE
                            211 	.area _CODE
                            212 	.area _INITIALIZER
                            213 	.area _CABS (ABS)
