                                      1 ;--------------------------------------------------------
                                      2 ; File Created by SDCC : free open source ANSI-C Compiler
                                      3 ; Version 3.3.1 #8898 (Nov 27 2013) (Linux)
                                      4 ; This file was generated Wed Nov 27 12:28:37 2013
                                      5 ;--------------------------------------------------------
                                      6 	.module _fsmul
                                      7 	
                                      8 ;--------------------------------------------------------
                                      9 ; Public variables in this module
                                     10 ;--------------------------------------------------------
                                     11 	.globl ___fsmul
                                     12 ;--------------------------------------------------------
                                     13 ; ram data
                                     14 ;--------------------------------------------------------
                                     15 	.area DATA
                                     16 ;--------------------------------------------------------
                                     17 ; ram data
                                     18 ;--------------------------------------------------------
                                     19 	.area INITIALIZED
                                     20 ;--------------------------------------------------------
                                     21 ; absolute external ram data
                                     22 ;--------------------------------------------------------
                                     23 	.area DABS (ABS)
                                     24 ;--------------------------------------------------------
                                     25 ; global & static initialisations
                                     26 ;--------------------------------------------------------
                                     27 	.area HOME
                                     28 	.area GSINIT
                                     29 	.area GSFINAL
                                     30 	.area GSINIT
                                     31 ;--------------------------------------------------------
                                     32 ; Home
                                     33 ;--------------------------------------------------------
                                     34 	.area HOME
                                     35 	.area HOME
                                     36 ;--------------------------------------------------------
                                     37 ; code
                                     38 ;--------------------------------------------------------
                                     39 	.area CODE
                                     40 ;	../_fsmul.c: 241: float __fsmul (float a1, float a2) {
                                     41 ;	-----------------------------------------
                                     42 ;	 function __fsmul
                                     43 ;	-----------------------------------------
      000000                         44 ___fsmul:
      000000 52 88            [ 2]   45 	sub	sp, #136
                                     46 ;	../_fsmul.c: 247: fl1.f = a1;
      000002 96               [ 1]   47 	ldw	x, sp
      000003 1C 00 0C         [ 2]   48 	addw	x, #12
      000006 16 8D            [ 2]   49 	ldw	y, (0x8d, sp)
      000008 EF 02            [ 2]   50 	ldw	(0x2, x), y
      00000A 16 8B            [ 2]   51 	ldw	y, (0x8b, sp)
      00000C FF               [ 2]   52 	ldw	(x), y
                                     53 ;	../_fsmul.c: 248: fl2.f = a2;
      00000D 96               [ 1]   54 	ldw	x, sp
      00000E 1C 00 08         [ 2]   55 	addw	x, #8
      000011 16 91            [ 2]   56 	ldw	y, (0x91, sp)
      000013 EF 02            [ 2]   57 	ldw	(0x2, x), y
      000015 16 8F            [ 2]   58 	ldw	y, (0x8f, sp)
      000017 FF               [ 2]   59 	ldw	(x), y
                                     60 ;	../_fsmul.c: 250: if (!fl1.l || !fl2.l)
      000018 96               [ 1]   61 	ldw	x, sp
      000019 1C 00 0C         [ 2]   62 	addw	x, #12
      00001C E6 03            [ 1]   63 	ld	a, (0x3, x)
      00001E 6B 68            [ 1]   64 	ld	(0x68, sp), a
      000020 E6 02            [ 1]   65 	ld	a, (0x2, x)
      000022 6B 67            [ 1]   66 	ld	(0x67, sp), a
      000024 FE               [ 2]   67 	ldw	x, (x)
      000025 1F 65            [ 2]   68 	ldw	(0x65, sp), x
      000027 1E 67            [ 2]   69 	ldw	x, (0x67, sp)
      000029 26 04            [ 1]   70 	jrne	00143$
      00002B 1E 65            [ 2]   71 	ldw	x, (0x65, sp)
      00002D 27 14            [ 1]   72 	jreq	00101$
      00002F                         73 00143$:
      00002F 96               [ 1]   74 	ldw	x, sp
      000030 1C 00 08         [ 2]   75 	addw	x, #8
      000033 E6 03            [ 1]   76 	ld	a, (0x3, x)
      000035 6B 80            [ 1]   77 	ld	(0x80, sp), a
      000037 E6 02            [ 1]   78 	ld	a, (0x2, x)
      000039 6B 7F            [ 1]   79 	ld	(0x7f, sp), a
      00003B FE               [ 2]   80 	ldw	x, (x)
      00003C 16 7F            [ 2]   81 	ldw	y, (0x7f, sp)
      00003E 26 09            [ 1]   82 	jrne	00102$
      000040 5D               [ 2]   83 	tnzw	x
      000041 26 06            [ 1]   84 	jrne	00102$
      000043                         85 00101$:
                                     86 ;	../_fsmul.c: 251: return (0);
      000043 5F               [ 1]   87 	clrw	x
      000044 90 5F            [ 1]   88 	clrw	y
      000046 CCr03r31         [ 2]   89 	jp	00113$
      000049                         90 00102$:
                                     91 ;	../_fsmul.c: 254: sign = SIGN (fl1.l) ^ SIGN (fl2.l);
      000049 96               [ 1]   92 	ldw	x, sp
      00004A 1C 00 0C         [ 2]   93 	addw	x, #12
      00004D E6 03            [ 1]   94 	ld	a, (0x3, x)
      00004F 6B 70            [ 1]   95 	ld	(0x70, sp), a
      000051 FE               [ 2]   96 	ldw	x, (x)
      000052 9E               [ 1]   97 	ld	a, xh
      000053 48               [ 1]   98 	sll	a
      000054 4F               [ 1]   99 	clr	a
      000055 49               [ 1]  100 	rlc	a
      000056 6B 18            [ 1]  101 	ld	(0x18, sp), a
      000058 96               [ 1]  102 	ldw	x, sp
      000059 1C 00 08         [ 2]  103 	addw	x, #8
      00005C E6 03            [ 1]  104 	ld	a, (0x3, x)
      00005E 6B 84            [ 1]  105 	ld	(0x84, sp), a
      000060 E6 02            [ 1]  106 	ld	a, (0x2, x)
      000062 6B 83            [ 1]  107 	ld	(0x83, sp), a
      000064 FE               [ 2]  108 	ldw	x, (x)
      000065 9E               [ 1]  109 	ld	a, xh
      000066 48               [ 1]  110 	sll	a
      000067 4F               [ 1]  111 	clr	a
      000068 49               [ 1]  112 	rlc	a
      000069 18 18            [ 1]  113 	xor	a, (0x18, sp)
      00006B 6B 01            [ 1]  114 	ld	(0x01, sp), a
                                    115 ;	../_fsmul.c: 255: exp = EXP (fl1.l) - EXCESS;
      00006D 96               [ 1]  116 	ldw	x, sp
      00006E 1C 00 0C         [ 2]  117 	addw	x, #12
      000071 E6 03            [ 1]  118 	ld	a, (0x3, x)
      000073 90 97            [ 1]  119 	ld	yl, a
      000075 E6 02            [ 1]  120 	ld	a, (0x2, x)
      000077 90 95            [ 1]  121 	ld	yh, a
      000079 FE               [ 2]  122 	ldw	x, (x)
      00007A A6 17            [ 1]  123 	ld	a, #0x17
      00007C 4D               [ 1]  124 	tnz	a
      00007D 27 06            [ 1]  125 	jreq	00147$
      00007F                        126 00146$:
      00007F 54               [ 2]  127 	srlw	x
      000080 90 56            [ 2]  128 	rrcw	y
      000082 4A               [ 1]  129 	dec	a
      000083 26 FA            [ 1]  130 	jrne	00146$
      000085                        131 00147$:
      000085 4F               [ 1]  132 	clr	a
      000086 90 95            [ 1]  133 	ld	yh, a
      000088 4F               [ 1]  134 	clr	a
      000089 97               [ 1]  135 	ld	xl, a
      00008A 4F               [ 1]  136 	clr	a
      00008B 72 A2 00 7E      [ 2]  137 	subw	y, #0x007e
      00008F 88               [ 1]  138 	push	a
      000090 9F               [ 1]  139 	ld	a, xl
      000091 A2 00            [ 1]  140 	sbc	a, #0x00
      000093 95               [ 1]  141 	ld	xh, a
      000094 7B 01            [ 1]  142 	ld	a, (1, sp)
      000096 A2 00            [ 1]  143 	sbc	a, #0x00
      000098 97               [ 1]  144 	ld	xl, a
      000099 84               [ 1]  145 	pop	a
      00009A 17 02            [ 2]  146 	ldw	(0x02, sp), y
                                    147 ;	../_fsmul.c: 256: exp += EXP (fl2.l);
      00009C 96               [ 1]  148 	ldw	x, sp
      00009D 1C 00 08         [ 2]  149 	addw	x, #8
      0000A0 E6 03            [ 1]  150 	ld	a, (0x3, x)
      0000A2 90 97            [ 1]  151 	ld	yl, a
      0000A4 E6 02            [ 1]  152 	ld	a, (0x2, x)
      0000A6 90 95            [ 1]  153 	ld	yh, a
      0000A8 FE               [ 2]  154 	ldw	x, (x)
      0000A9 A6 17            [ 1]  155 	ld	a, #0x17
      0000AB 4D               [ 1]  156 	tnz	a
      0000AC 27 06            [ 1]  157 	jreq	00149$
      0000AE                        158 00148$:
      0000AE 54               [ 2]  159 	srlw	x
      0000AF 90 56            [ 2]  160 	rrcw	y
      0000B1 4A               [ 1]  161 	dec	a
      0000B2 26 FA            [ 1]  162 	jrne	00148$
      0000B4                        163 00149$:
      0000B4 4F               [ 1]  164 	clr	a
      0000B5 90 95            [ 1]  165 	ld	yh, a
      0000B7 0F 1A            [ 1]  166 	clr	(0x1a, sp)
      0000B9 0F 19            [ 1]  167 	clr	(0x19, sp)
      0000BB 1E 02            [ 2]  168 	ldw	x, (0x02, sp)
      0000BD 1F 27            [ 2]  169 	ldw	(0x27, sp), x
      0000BF 5F               [ 1]  170 	clrw	x
      0000C0 0D 27            [ 1]  171 	tnz	(0x27, sp)
      0000C2 2A 01            [ 1]  172 	jrpl	00150$
      0000C4 5A               [ 2]  173 	decw	x
      0000C5                        174 00150$:
      0000C5 72 F9 27         [ 2]  175 	addw	y, (0x27, sp)
      0000C8 9F               [ 1]  176 	ld	a, xl
      0000C9 19 1A            [ 1]  177 	adc	a, (0x1a, sp)
      0000CB 97               [ 1]  178 	ld	xl, a
      0000CC 9E               [ 1]  179 	ld	a, xh
      0000CD 19 19            [ 1]  180 	adc	a, (0x19, sp)
      0000CF 17 02            [ 2]  181 	ldw	(0x02, sp), y
                                    182 ;	../_fsmul.c: 258: fl1.l = MANT (fl1.l);
      0000D1 96               [ 1]  183 	ldw	x, sp
      0000D2 1C 00 0C         [ 2]  184 	addw	x, #12
      0000D5 1F 31            [ 2]  185 	ldw	(0x31, sp), x
      0000D7 96               [ 1]  186 	ldw	x, sp
      0000D8 1C 00 0C         [ 2]  187 	addw	x, #12
      0000DB E6 03            [ 1]  188 	ld	a, (0x3, x)
      0000DD 90 97            [ 1]  189 	ld	yl, a
      0000DF E6 02            [ 1]  190 	ld	a, (0x2, x)
      0000E1 90 95            [ 1]  191 	ld	yh, a
      0000E3 FE               [ 2]  192 	ldw	x, (x)
      0000E4 9F               [ 1]  193 	ld	a, xl
      0000E5 A4 7F            [ 1]  194 	and	a, #0x7f
      0000E7 97               [ 1]  195 	ld	xl, a
      0000E8 4F               [ 1]  196 	clr	a
      0000E9 6B 37            [ 1]  197 	ld	(0x37, sp), a
      0000EB 9F               [ 1]  198 	ld	a, xl
      0000EC AA 80            [ 1]  199 	or	a, #0x80
      0000EE 6B 38            [ 1]  200 	ld	(0x38, sp), a
      0000F0 1E 31            [ 2]  201 	ldw	x, (0x31, sp)
      0000F2 EF 02            [ 2]  202 	ldw	(0x2, x), y
      0000F4 16 37            [ 2]  203 	ldw	y, (0x37, sp)
      0000F6 FF               [ 2]  204 	ldw	(x), y
                                    205 ;	../_fsmul.c: 259: fl2.l = MANT (fl2.l);
      0000F7 96               [ 1]  206 	ldw	x, sp
      0000F8 1C 00 08         [ 2]  207 	addw	x, #8
      0000FB 1F 3D            [ 2]  208 	ldw	(0x3d, sp), x
      0000FD 96               [ 1]  209 	ldw	x, sp
      0000FE 1C 00 08         [ 2]  210 	addw	x, #8
      000101 E6 03            [ 1]  211 	ld	a, (0x3, x)
      000103 90 97            [ 1]  212 	ld	yl, a
      000105 E6 02            [ 1]  213 	ld	a, (0x2, x)
      000107 90 95            [ 1]  214 	ld	yh, a
      000109 FE               [ 2]  215 	ldw	x, (x)
      00010A 9F               [ 1]  216 	ld	a, xl
      00010B A4 7F            [ 1]  217 	and	a, #0x7f
      00010D 97               [ 1]  218 	ld	xl, a
      00010E 4F               [ 1]  219 	clr	a
      00010F 6B 43            [ 1]  220 	ld	(0x43, sp), a
      000111 9F               [ 1]  221 	ld	a, xl
      000112 AA 80            [ 1]  222 	or	a, #0x80
      000114 6B 44            [ 1]  223 	ld	(0x44, sp), a
      000116 1E 3D            [ 2]  224 	ldw	x, (0x3d, sp)
      000118 EF 02            [ 2]  225 	ldw	(0x2, x), y
      00011A 16 43            [ 2]  226 	ldw	y, (0x43, sp)
      00011C FF               [ 2]  227 	ldw	(x), y
                                    228 ;	../_fsmul.c: 262: result = (fl1.l >> 8) * (fl2.l >> 8);
      00011D 96               [ 1]  229 	ldw	x, sp
      00011E 1C 00 0C         [ 2]  230 	addw	x, #12
      000121 E6 03            [ 1]  231 	ld	a, (0x3, x)
      000123 6B 13            [ 1]  232 	ld	(0x13, sp), a
      000125 E6 02            [ 1]  233 	ld	a, (0x2, x)
      000127 FE               [ 2]  234 	ldw	x, (x)
      000128 6B 58            [ 1]  235 	ld	(0x58, sp), a
      00012A 90 93            [ 1]  236 	ldw	y, x
      00012C 0F 55            [ 1]  237 	clr	(0x55, sp)
      00012E 96               [ 1]  238 	ldw	x, sp
      00012F 1C 00 08         [ 2]  239 	addw	x, #8
      000132 E6 03            [ 1]  240 	ld	a, (0x3, x)
      000134 6B 5C            [ 1]  241 	ld	(0x5c, sp), a
      000136 E6 02            [ 1]  242 	ld	a, (0x2, x)
      000138 FE               [ 2]  243 	ldw	x, (x)
      000139 1F 59            [ 2]  244 	ldw	(0x59, sp), x
      00013B 1E 59            [ 2]  245 	ldw	x, (0x59, sp)
      00013D 1F 5E            [ 2]  246 	ldw	(0x5e, sp), x
      00013F 95               [ 1]  247 	ld	xh, a
      000140 4F               [ 1]  248 	clr	a
      000141 41               [ 1]  249 	exg	a, xl
      000142 9E               [ 1]  250 	ld	a, xh
      000143 41               [ 1]  251 	exg	a, xl
      000144 89               [ 2]  252 	pushw	x
      000145 5B 01            [ 2]  253 	addw	sp, #1
      000147 1E 5F            [ 2]  254 	ldw	x, (0x5f, sp)
      000149 89               [ 2]  255 	pushw	x
      00014A 88               [ 1]  256 	push	a
      00014B 7B 5C            [ 1]  257 	ld	a, (0x5c, sp)
      00014D 88               [ 1]  258 	push	a
      00014E 90 89            [ 2]  259 	pushw	y
      000150 7B 5C            [ 1]  260 	ld	a, (0x5c, sp)
      000152 88               [ 1]  261 	push	a
      000153 CDr00r00         [ 4]  262 	call	__mullong
      000156 5B 08            [ 2]  263 	addw	sp, #8
      000158 1F 06            [ 2]  264 	ldw	(0x06, sp), x
      00015A 17 04            [ 2]  265 	ldw	(0x04, sp), y
                                    266 ;	../_fsmul.c: 263: result += ((fl1.l & (unsigned long) 0xFF) * (fl2.l >> 8)) >> 8;
      00015C 96               [ 1]  267 	ldw	x, sp
      00015D 1C 00 0C         [ 2]  268 	addw	x, #12
      000160 E6 03            [ 1]  269 	ld	a, (0x3, x)
      000162 90 97            [ 1]  270 	ld	yl, a
      000164 E6 02            [ 1]  271 	ld	a, (0x2, x)
      000166 FE               [ 2]  272 	ldw	x, (x)
      000167 A4 00            [ 1]  273 	and	a, #0x00
      000169 90 95            [ 1]  274 	ld	yh, a
      00016B 0F 62            [ 1]  275 	clr	(0x62, sp)
      00016D 0F 61            [ 1]  276 	clr	(0x61, sp)
      00016F 96               [ 1]  277 	ldw	x, sp
      000170 1C 00 08         [ 2]  278 	addw	x, #8
      000173 E6 03            [ 1]  279 	ld	a, (0x3, x)
      000175 6B 74            [ 1]  280 	ld	(0x74, sp), a
      000177 E6 02            [ 1]  281 	ld	a, (0x2, x)
      000179 FE               [ 2]  282 	ldw	x, (x)
      00017A 1F 71            [ 2]  283 	ldw	(0x71, sp), x
      00017C 1E 71            [ 2]  284 	ldw	x, (0x71, sp)
      00017E 1F 6A            [ 2]  285 	ldw	(0x6a, sp), x
      000180 95               [ 1]  286 	ld	xh, a
      000181 4F               [ 1]  287 	clr	a
      000182 41               [ 1]  288 	exg	a, xl
      000183 9E               [ 1]  289 	ld	a, xh
      000184 41               [ 1]  290 	exg	a, xl
      000185 89               [ 2]  291 	pushw	x
      000186 5B 01            [ 2]  292 	addw	sp, #1
      000188 1E 6B            [ 2]  293 	ldw	x, (0x6b, sp)
      00018A 89               [ 2]  294 	pushw	x
      00018B 88               [ 1]  295 	push	a
      00018C 90 89            [ 2]  296 	pushw	y
      00018E 1E 67            [ 2]  297 	ldw	x, (0x67, sp)
      000190 89               [ 2]  298 	pushw	x
      000191 CDr00r00         [ 4]  299 	call	__mullong
      000194 5B 08            [ 2]  300 	addw	sp, #8
      000196 17 15            [ 2]  301 	ldw	(0x15, sp), y
      000198 9E               [ 1]  302 	ld	a, xh
      000199 02               [ 1]  303 	rlwa	x
      00019A 4F               [ 1]  304 	clr	a
      00019B 01               [ 1]  305 	rrwa	x
      00019C 90 97            [ 1]  306 	ld	yl, a
      00019E 7B 16            [ 1]  307 	ld	a, (0x16, sp)
      0001A0 90 95            [ 1]  308 	ld	yh, a
      0001A2 72 F9 06         [ 2]  309 	addw	y, (0x06, sp)
      0001A5 7B 15            [ 1]  310 	ld	a, (0x15, sp)
      0001A7 19 05            [ 1]  311 	adc	a, (0x05, sp)
      0001A9 97               [ 1]  312 	ld	xl, a
      0001AA 9E               [ 1]  313 	ld	a, xh
      0001AB 19 04            [ 1]  314 	adc	a, (0x04, sp)
      0001AD 95               [ 1]  315 	ld	xh, a
      0001AE 17 06            [ 2]  316 	ldw	(0x06, sp), y
      0001B0 1F 04            [ 2]  317 	ldw	(0x04, sp), x
                                    318 ;	../_fsmul.c: 264: result += ((fl2.l & (unsigned long) 0xFF) * (fl1.l >> 8)) >> 8;
      0001B2 96               [ 1]  319 	ldw	x, sp
      0001B3 1C 00 08         [ 2]  320 	addw	x, #8
      0001B6 E6 03            [ 1]  321 	ld	a, (0x3, x)
      0001B8 90 97            [ 1]  322 	ld	yl, a
      0001BA E6 02            [ 1]  323 	ld	a, (0x2, x)
      0001BC FE               [ 2]  324 	ldw	x, (x)
      0001BD A4 00            [ 1]  325 	and	a, #0x00
      0001BF 90 95            [ 1]  326 	ld	yh, a
      0001C1 0F 22            [ 1]  327 	clr	(0x22, sp)
      0001C3 0F 21            [ 1]  328 	clr	(0x21, sp)
      0001C5 96               [ 1]  329 	ldw	x, sp
      0001C6 1C 00 0C         [ 2]  330 	addw	x, #12
      0001C9 E6 03            [ 1]  331 	ld	a, (0x3, x)
      0001CB 6B 30            [ 1]  332 	ld	(0x30, sp), a
      0001CD E6 02            [ 1]  333 	ld	a, (0x2, x)
      0001CF FE               [ 2]  334 	ldw	x, (x)
      0001D0 1F 2D            [ 2]  335 	ldw	(0x2d, sp), x
      0001D2 1E 2D            [ 2]  336 	ldw	x, (0x2d, sp)
      0001D4 1F 34            [ 2]  337 	ldw	(0x34, sp), x
      0001D6 95               [ 1]  338 	ld	xh, a
      0001D7 4F               [ 1]  339 	clr	a
      0001D8 41               [ 1]  340 	exg	a, xl
      0001D9 9E               [ 1]  341 	ld	a, xh
      0001DA 41               [ 1]  342 	exg	a, xl
      0001DB 89               [ 2]  343 	pushw	x
      0001DC 5B 01            [ 2]  344 	addw	sp, #1
      0001DE 1E 35            [ 2]  345 	ldw	x, (0x35, sp)
      0001E0 89               [ 2]  346 	pushw	x
      0001E1 88               [ 1]  347 	push	a
      0001E2 90 89            [ 2]  348 	pushw	y
      0001E4 1E 27            [ 2]  349 	ldw	x, (0x27, sp)
      0001E6 89               [ 2]  350 	pushw	x
      0001E7 CDr00r00         [ 4]  351 	call	__mullong
      0001EA 5B 08            [ 2]  352 	addw	sp, #8
      0001EC 17 48            [ 2]  353 	ldw	(0x48, sp), y
      0001EE 9E               [ 1]  354 	ld	a, xh
      0001EF 02               [ 1]  355 	rlwa	x
      0001F0 4F               [ 1]  356 	clr	a
      0001F1 01               [ 1]  357 	rrwa	x
      0001F2 90 97            [ 1]  358 	ld	yl, a
      0001F4 7B 49            [ 1]  359 	ld	a, (0x49, sp)
      0001F6 90 95            [ 1]  360 	ld	yh, a
      0001F8 72 F9 06         [ 2]  361 	addw	y, (0x06, sp)
      0001FB 7B 48            [ 1]  362 	ld	a, (0x48, sp)
      0001FD 19 05            [ 1]  363 	adc	a, (0x05, sp)
      0001FF 97               [ 1]  364 	ld	xl, a
      000200 9E               [ 1]  365 	ld	a, xh
      000201 19 04            [ 1]  366 	adc	a, (0x04, sp)
      000203 95               [ 1]  367 	ld	xh, a
      000204 17 06            [ 2]  368 	ldw	(0x06, sp), y
      000206 1F 04            [ 2]  369 	ldw	(0x04, sp), x
                                    370 ;	../_fsmul.c: 267: result += 0x40;
      000208 16 06            [ 2]  371 	ldw	y, (0x06, sp)
      00020A 72 A9 00 40      [ 2]  372 	addw	y, #0x0040
      00020E 7B 05            [ 1]  373 	ld	a, (0x05, sp)
      000210 A9 00            [ 1]  374 	adc	a, #0x00
      000212 97               [ 1]  375 	ld	xl, a
      000213 7B 04            [ 1]  376 	ld	a, (0x04, sp)
      000215 A9 00            [ 1]  377 	adc	a, #0x00
      000217 95               [ 1]  378 	ld	xh, a
      000218 17 06            [ 2]  379 	ldw	(0x06, sp), y
      00021A 1F 04            [ 2]  380 	ldw	(0x04, sp), x
                                    381 ;	../_fsmul.c: 269: if (result & SIGNBIT)
      00021C 0F 4E            [ 1]  382 	clr	(0x4e, sp)
      00021E 0F 4D            [ 1]  383 	clr	(0x4d, sp)
      000220 0F 4C            [ 1]  384 	clr	(0x4c, sp)
      000222 7B 04            [ 1]  385 	ld	a, (0x04, sp)
      000224 A4 80            [ 1]  386 	and	a, #0x80
      000226 6B 4B            [ 1]  387 	ld	(0x4b, sp), a
      000228 1E 4D            [ 2]  388 	ldw	x, (0x4d, sp)
      00022A 26 04            [ 1]  389 	jrne	00151$
      00022C 1E 4B            [ 2]  390 	ldw	x, (0x4b, sp)
      00022E 27 21            [ 1]  391 	jreq	00105$
      000230                        392 00151$:
                                    393 ;	../_fsmul.c: 272: result += 0x40;
      000230 16 06            [ 2]  394 	ldw	y, (0x06, sp)
      000232 72 A9 00 40      [ 2]  395 	addw	y, #0x0040
      000236 7B 05            [ 1]  396 	ld	a, (0x05, sp)
      000238 A9 00            [ 1]  397 	adc	a, #0x00
      00023A 97               [ 1]  398 	ld	xl, a
      00023B 7B 04            [ 1]  399 	ld	a, (0x04, sp)
      00023D A9 00            [ 1]  400 	adc	a, #0x00
      00023F 95               [ 1]  401 	ld	xh, a
      000240 17 06            [ 2]  402 	ldw	(0x06, sp), y
      000242 1F 04            [ 2]  403 	ldw	(0x04, sp), x
                                    404 ;	../_fsmul.c: 273: result >>= 8;
      000244 16 05            [ 2]  405 	ldw	y, (0x05, sp)
      000246 7B 04            [ 1]  406 	ld	a, (0x04, sp)
      000248 97               [ 1]  407 	ld	xl, a
      000249 4F               [ 1]  408 	clr	a
      00024A 95               [ 1]  409 	ld	xh, a
      00024B 17 06            [ 2]  410 	ldw	(0x06, sp), y
      00024D 1F 04            [ 2]  411 	ldw	(0x04, sp), x
      00024F 20 18            [ 2]  412 	jra	00106$
      000251                        413 00105$:
                                    414 ;	../_fsmul.c: 277: result >>= 7;
      000251 16 06            [ 2]  415 	ldw	y, (0x06, sp)
      000253 1E 04            [ 2]  416 	ldw	x, (0x04, sp)
      000255 A6 07            [ 1]  417 	ld	a, #0x07
      000257 4D               [ 1]  418 	tnz	a
      000258 27 06            [ 1]  419 	jreq	00153$
      00025A                        420 00152$:
      00025A 54               [ 2]  421 	srlw	x
      00025B 90 56            [ 2]  422 	rrcw	y
      00025D 4A               [ 1]  423 	dec	a
      00025E 26 FA            [ 1]  424 	jrne	00152$
      000260                        425 00153$:
      000260 17 06            [ 2]  426 	ldw	(0x06, sp), y
      000262 1F 04            [ 2]  427 	ldw	(0x04, sp), x
                                    428 ;	../_fsmul.c: 278: exp--;
      000264 1E 02            [ 2]  429 	ldw	x, (0x02, sp)
      000266 5A               [ 2]  430 	decw	x
      000267 1F 02            [ 2]  431 	ldw	(0x02, sp), x
      000269                        432 00106$:
                                    433 ;	../_fsmul.c: 281: result &= ~HIDDEN;
      000269 7B 07            [ 1]  434 	ld	a, (0x07, sp)
      00026B 90 97            [ 1]  435 	ld	yl, a
      00026D 7B 06            [ 1]  436 	ld	a, (0x06, sp)
      00026F 90 95            [ 1]  437 	ld	yh, a
      000271 7B 05            [ 1]  438 	ld	a, (0x05, sp)
      000273 A4 7F            [ 1]  439 	and	a, #0x7f
      000275 97               [ 1]  440 	ld	xl, a
      000276 7B 04            [ 1]  441 	ld	a, (0x04, sp)
      000278 95               [ 1]  442 	ld	xh, a
      000279 17 06            [ 2]  443 	ldw	(0x06, sp), y
      00027B 1F 04            [ 2]  444 	ldw	(0x04, sp), x
                                    445 ;	../_fsmul.c: 284: if (exp >= 0x100)
      00027D 1E 02            [ 2]  446 	ldw	x, (0x02, sp)
      00027F A3 01 00         [ 2]  447 	cpw	x, #0x0100
      000282 2F 2B            [ 1]  448 	jrslt	00111$
                                    449 ;	../_fsmul.c: 285: fl1.l = (sign ? SIGNBIT : 0) | __INFINITY;
      000284 96               [ 1]  450 	ldw	x, sp
      000285 1C 00 0C         [ 2]  451 	addw	x, #12
      000288 1F 4F            [ 2]  452 	ldw	(0x4f, sp), x
      00028A 0D 01            [ 1]  453 	tnz	(0x01, sp)
      00028C 27 08            [ 1]  454 	jreq	00115$
      00028E 90 5F            [ 1]  455 	clrw	y
      000290 0F 52            [ 1]  456 	clr	(0x52, sp)
      000292 A6 80            [ 1]  457 	ld	a, #0x80
      000294 20 05            [ 2]  458 	jra	00116$
      000296                        459 00115$:
      000296 90 5F            [ 1]  460 	clrw	y
      000298 0F 52            [ 1]  461 	clr	(0x52, sp)
      00029A 4F               [ 1]  462 	clr	a
      00029B                        463 00116$:
      00029B AA 7F            [ 1]  464 	or	a, #0x7f
      00029D 6B 79            [ 1]  465 	ld	(0x79, sp), a
      00029F 7B 52            [ 1]  466 	ld	a, (0x52, sp)
      0002A1 AA 80            [ 1]  467 	or	a, #0x80
      0002A3 6B 7A            [ 1]  468 	ld	(0x7a, sp), a
      0002A5 1E 4F            [ 2]  469 	ldw	x, (0x4f, sp)
      0002A7 EF 02            [ 2]  470 	ldw	(0x2, x), y
      0002A9 16 79            [ 2]  471 	ldw	y, (0x79, sp)
      0002AB FF               [ 2]  472 	ldw	(x), y
      0002AC CCr03r23         [ 2]  473 	jp	00112$
      0002AF                        474 00111$:
                                    475 ;	../_fsmul.c: 286: else if (exp < 0)
      0002AF 1E 02            [ 2]  476 	ldw	x, (0x02, sp)
      0002B1 A3 00 00         [ 2]  477 	cpw	x, #0x0000
      0002B4 2E 0D            [ 1]  478 	jrsge	00108$
                                    479 ;	../_fsmul.c: 287: fl1.l = 0;
      0002B6 96               [ 1]  480 	ldw	x, sp
      0002B7 1C 00 0C         [ 2]  481 	addw	x, #12
      0002BA 6F 03            [ 1]  482 	clr	(0x3, x)
      0002BC 6F 02            [ 1]  483 	clr	(0x2, x)
      0002BE 6F 01            [ 1]  484 	clr	(0x1, x)
      0002C0 7F               [ 1]  485 	clr	(x)
      0002C1 20 60            [ 2]  486 	jra	00112$
      0002C3                        487 00108$:
                                    488 ;	../_fsmul.c: 289: fl1.l = PACK (sign ? SIGNBIT : 0 , exp, result);
      0002C3 96               [ 1]  489 	ldw	x, sp
      0002C4 1C 00 0C         [ 2]  490 	addw	x, #12
      0002C7 1F 3B            [ 2]  491 	ldw	(0x3b, sp), x
      0002C9 0D 01            [ 1]  492 	tnz	(0x01, sp)
      0002CB 27 0A            [ 1]  493 	jreq	00117$
      0002CD 5F               [ 1]  494 	clrw	x
      0002CE 1F 41            [ 2]  495 	ldw	(0x41, sp), x
      0002D0 AE 80 00         [ 2]  496 	ldw	x, #0x8000
      0002D3 1F 3F            [ 2]  497 	ldw	(0x3f, sp), x
      0002D5 20 05            [ 2]  498 	jra	00118$
      0002D7                        499 00117$:
      0002D7 5F               [ 1]  500 	clrw	x
      0002D8 1F 41            [ 2]  501 	ldw	(0x41, sp), x
      0002DA 1F 3F            [ 2]  502 	ldw	(0x3f, sp), x
      0002DC                        503 00118$:
      0002DC 1E 02            [ 2]  504 	ldw	x, (0x02, sp)
      0002DE 9E               [ 1]  505 	ld	a, xh
      0002DF 49               [ 1]  506 	rlc	a
      0002E0 4F               [ 1]  507 	clr	a
      0002E1 A2 00            [ 1]  508 	sbc	a, #0x00
      0002E3 88               [ 1]  509 	push	a
      0002E4 6B 86            [ 1]  510 	ld	(0x86, sp), a
      0002E6 7B 86            [ 1]  511 	ld	a, (0x86, sp)
      0002E8 6B 76            [ 1]  512 	ld	(0x76, sp), a
      0002EA A6 17            [ 1]  513 	ld	a, #0x17
      0002EC 4D               [ 1]  514 	tnz	a
      0002ED 27 08            [ 1]  515 	jreq	00159$
      0002EF                        516 00158$:
      0002EF 58               [ 2]  517 	sllw	x
      0002F0 09 01            [ 1]  518 	rlc	(1, sp)
      0002F2 09 76            [ 1]  519 	rlc	(0x76, sp)
      0002F4 4A               [ 1]  520 	dec	a
      0002F5 26 F8            [ 1]  521 	jrne	00158$
      0002F7                        522 00159$:
      0002F7 84               [ 1]  523 	pop	a
      0002F8 1A 40            [ 1]  524 	or	a, (0x40, sp)
      0002FA 6B 1E            [ 1]  525 	ld	(0x1e, sp), a
      0002FC 9F               [ 1]  526 	ld	a, xl
      0002FD 1A 42            [ 1]  527 	or	a, (0x42, sp)
      0002FF 97               [ 1]  528 	ld	xl, a
      000300 9E               [ 1]  529 	ld	a, xh
      000301 1A 41            [ 1]  530 	or	a, (0x41, sp)
      000303 95               [ 1]  531 	ld	xh, a
      000304 7B 75            [ 1]  532 	ld	a, (0x75, sp)
      000306 1A 3F            [ 1]  533 	or	a, (0x3f, sp)
      000308 1A 04            [ 1]  534 	or	a, (0x04, sp)
      00030A 6B 29            [ 1]  535 	ld	(0x29, sp), a
      00030C 9F               [ 1]  536 	ld	a, xl
      00030D 1A 07            [ 1]  537 	or	a, (0x07, sp)
      00030F 90 97            [ 1]  538 	ld	yl, a
      000311 9E               [ 1]  539 	ld	a, xh
      000312 1A 06            [ 1]  540 	or	a, (0x06, sp)
      000314 90 95            [ 1]  541 	ld	yh, a
      000316 7B 1E            [ 1]  542 	ld	a, (0x1e, sp)
      000318 1A 05            [ 1]  543 	or	a, (0x05, sp)
      00031A 6B 2A            [ 1]  544 	ld	(0x2a, sp), a
      00031C 1E 3B            [ 2]  545 	ldw	x, (0x3b, sp)
      00031E EF 02            [ 2]  546 	ldw	(0x2, x), y
      000320 16 29            [ 2]  547 	ldw	y, (0x29, sp)
      000322 FF               [ 2]  548 	ldw	(x), y
      000323                        549 00112$:
                                    550 ;	../_fsmul.c: 290: return (fl1.f);
      000323 96               [ 1]  551 	ldw	x, sp
      000324 1C 00 0C         [ 2]  552 	addw	x, #12
      000327 E6 03            [ 1]  553 	ld	a, (0x3, x)
      000329 90 97            [ 1]  554 	ld	yl, a
      00032B E6 02            [ 1]  555 	ld	a, (0x2, x)
      00032D 90 95            [ 1]  556 	ld	yh, a
      00032F FE               [ 2]  557 	ldw	x, (x)
      000330 51               [ 1]  558 	exgw	x, y
      000331                        559 00113$:
      000331 5B 88            [ 2]  560 	addw	sp, #136
      000333 81               [ 4]  561 	ret
                                    562 	.area CODE
                                    563 	.area INITIALIZER
                                    564 	.area CABS (ABS)
