                                      1 ;--------------------------------------------------------
                                      2 ; File Created by SDCC : free open source ANSI-C Compiler
                                      3 ; Version 3.3.1 #8898 (Nov 27 2013) (Linux)
                                      4 ; This file was generated Wed Nov 27 12:28:00 2013
                                      5 ;--------------------------------------------------------
                                      6 	.module _strchr
                                      7 	.optsdcc -mmcs51 --model-huge
                                      8 	
                                      9 ;--------------------------------------------------------
                                     10 ; Public variables in this module
                                     11 ;--------------------------------------------------------
                                     12 	.globl _strchr_PARM_2
                                     13 	.globl _strchr
                                     14 ;--------------------------------------------------------
                                     15 ; special function registers
                                     16 ;--------------------------------------------------------
                                     17 	.area RSEG    (ABS,DATA)
      000000                         18 	.org 0x0000
                                     19 ;--------------------------------------------------------
                                     20 ; special function bits
                                     21 ;--------------------------------------------------------
                                     22 	.area RSEG    (ABS,DATA)
      000000                         23 	.org 0x0000
                                     24 ;--------------------------------------------------------
                                     25 ; overlayable register banks
                                     26 ;--------------------------------------------------------
                                     27 	.area REG_BANK_0	(REL,OVR,DATA)
      000000                         28 	.ds 8
                                     29 ;--------------------------------------------------------
                                     30 ; internal ram data
                                     31 ;--------------------------------------------------------
                                     32 	.area DSEG    (DATA)
                                     33 ;--------------------------------------------------------
                                     34 ; overlayable items in internal ram 
                                     35 ;--------------------------------------------------------
                                     36 ;--------------------------------------------------------
                                     37 ; indirectly addressable internal ram data
                                     38 ;--------------------------------------------------------
                                     39 	.area ISEG    (DATA)
                                     40 ;--------------------------------------------------------
                                     41 ; absolute internal ram data
                                     42 ;--------------------------------------------------------
                                     43 	.area IABS    (ABS,DATA)
                                     44 	.area IABS    (ABS,DATA)
                                     45 ;--------------------------------------------------------
                                     46 ; bit data
                                     47 ;--------------------------------------------------------
                                     48 	.area BSEG    (BIT)
                                     49 ;--------------------------------------------------------
                                     50 ; paged external ram data
                                     51 ;--------------------------------------------------------
                                     52 	.area PSEG    (PAG,XDATA)
                                     53 ;--------------------------------------------------------
                                     54 ; external ram data
                                     55 ;--------------------------------------------------------
                                     56 	.area XSEG    (XDATA)
      000000                         57 _strchr_PARM_2:
      000000                         58 	.ds 1
      000001                         59 _strchr_string_1_21:
      000001                         60 	.ds 3
                                     61 ;--------------------------------------------------------
                                     62 ; absolute external ram data
                                     63 ;--------------------------------------------------------
                                     64 	.area XABS    (ABS,XDATA)
                                     65 ;--------------------------------------------------------
                                     66 ; external initialized ram data
                                     67 ;--------------------------------------------------------
                                     68 	.area XISEG   (XDATA)
                                     69 	.area HOME    (CODE)
                                     70 	.area GSINIT0 (CODE)
                                     71 	.area GSINIT1 (CODE)
                                     72 	.area GSINIT2 (CODE)
                                     73 	.area GSINIT3 (CODE)
                                     74 	.area GSINIT4 (CODE)
                                     75 	.area GSINIT5 (CODE)
                                     76 	.area GSINIT  (CODE)
                                     77 	.area GSFINAL (CODE)
                                     78 	.area CSEG    (CODE)
                                     79 ;--------------------------------------------------------
                                     80 ; global & static initialisations
                                     81 ;--------------------------------------------------------
                                     82 	.area HOME    (CODE)
                                     83 	.area GSINIT  (CODE)
                                     84 	.area GSFINAL (CODE)
                                     85 	.area GSINIT  (CODE)
                                     86 ;--------------------------------------------------------
                                     87 ; Home
                                     88 ;--------------------------------------------------------
                                     89 	.area HOME    (CODE)
                                     90 	.area HOME    (CODE)
                                     91 ;--------------------------------------------------------
                                     92 ; code
                                     93 ;--------------------------------------------------------
                                     94 	.area CSEG    (CODE)
                                     95 ;------------------------------------------------------------
                                     96 ;Allocation info for local variables in function 'strchr'
                                     97 ;------------------------------------------------------------
                                     98 ;ch                        Allocated with name '_strchr_PARM_2'
                                     99 ;string                    Allocated with name '_strchr_string_1_21'
                                    100 ;------------------------------------------------------------
                                    101 ;	_strchr.c:34: char * strchr (
                                    102 ;	-----------------------------------------
                                    103 ;	 function strchr
                                    104 ;	-----------------------------------------
      000000                        105 _strchr:
                           000007   106 	ar7 = 0x07
                           000006   107 	ar6 = 0x06
                           000005   108 	ar5 = 0x05
                           000004   109 	ar4 = 0x04
                           000003   110 	ar3 = 0x03
                           000002   111 	ar2 = 0x02
                           000001   112 	ar1 = 0x01
                           000000   113 	ar0 = 0x00
      000000 AF F0            [24]  114 	mov	r7,b
      000002 AE 83            [24]  115 	mov	r6,dph
      000004 E5 82            [12]  116 	mov	a,dpl
      000006 90r00r01         [24]  117 	mov	dptr,#_strchr_string_1_21
      000009 F0               [24]  118 	movx	@dptr,a
      00000A EE               [12]  119 	mov	a,r6
      00000B A3               [24]  120 	inc	dptr
      00000C F0               [24]  121 	movx	@dptr,a
      00000D EF               [12]  122 	mov	a,r7
      00000E A3               [24]  123 	inc	dptr
      00000F F0               [24]  124 	movx	@dptr,a
                                    125 ;	_strchr.c:45: while (*string && *string != ch)
      000010 90r00r00         [24]  126 	mov	dptr,#_strchr_PARM_2
      000013 E0               [24]  127 	movx	a,@dptr
      000014 FF               [12]  128 	mov	r7,a
      000015 90r00r01         [24]  129 	mov	dptr,#_strchr_string_1_21
      000018 E0               [24]  130 	movx	a,@dptr
      000019 FC               [12]  131 	mov	r4,a
      00001A A3               [24]  132 	inc	dptr
      00001B E0               [24]  133 	movx	a,@dptr
      00001C FD               [12]  134 	mov	r5,a
      00001D A3               [24]  135 	inc	dptr
      00001E E0               [24]  136 	movx	a,@dptr
      00001F FE               [12]  137 	mov	r6,a
      000020                        138 00102$:
      000020 8C 82            [24]  139 	mov	dpl,r4
      000022 8D 83            [24]  140 	mov	dph,r5
      000024 8E F0            [24]  141 	mov	b,r6
      000026 12r00r00         [24]  142 	lcall	__gptrget
      000029 FB               [12]  143 	mov	r3,a
      00002A 60 18            [24]  144 	jz	00113$
      00002C EB               [12]  145 	mov	a,r3
      00002D B5 07 02         [24]  146 	cjne	a,ar7,00123$
      000030 80 12            [24]  147 	sjmp	00113$
      000032                        148 00123$:
                                    149 ;	_strchr.c:46: string++;
      000032 0C               [12]  150 	inc	r4
      000033 BC 00 01         [24]  151 	cjne	r4,#0x00,00124$
      000036 0D               [12]  152 	inc	r5
      000037                        153 00124$:
      000037 90r00r01         [24]  154 	mov	dptr,#_strchr_string_1_21
      00003A EC               [12]  155 	mov	a,r4
      00003B F0               [24]  156 	movx	@dptr,a
      00003C ED               [12]  157 	mov	a,r5
      00003D A3               [24]  158 	inc	dptr
      00003E F0               [24]  159 	movx	@dptr,a
      00003F EE               [12]  160 	mov	a,r6
      000040 A3               [24]  161 	inc	dptr
      000041 F0               [24]  162 	movx	@dptr,a
      000042 80 DC            [24]  163 	sjmp	00102$
      000044                        164 00113$:
      000044 90r00r01         [24]  165 	mov	dptr,#_strchr_string_1_21
      000047 EC               [12]  166 	mov	a,r4
      000048 F0               [24]  167 	movx	@dptr,a
      000049 ED               [12]  168 	mov	a,r5
      00004A A3               [24]  169 	inc	dptr
      00004B F0               [24]  170 	movx	@dptr,a
      00004C EE               [12]  171 	mov	a,r6
      00004D A3               [24]  172 	inc	dptr
      00004E F0               [24]  173 	movx	@dptr,a
                                    174 ;	_strchr.c:48: if (*string == ch)
      00004F 8C 82            [24]  175 	mov	dpl,r4
      000051 8D 83            [24]  176 	mov	dph,r5
      000053 8E F0            [24]  177 	mov	b,r6
      000055 12r00r00         [24]  178 	lcall	__gptrget
      000058 FB               [12]  179 	mov	r3,a
      000059 B5 07 08         [24]  180 	cjne	a,ar7,00106$
                                    181 ;	_strchr.c:49: return(string);
      00005C 8C 82            [24]  182 	mov	dpl,r4
      00005E 8D 83            [24]  183 	mov	dph,r5
      000060 8E F0            [24]  184 	mov	b,r6
      000062 80 06            [24]  185 	sjmp	00107$
      000064                        186 00106$:
                                    187 ;	_strchr.c:50: return ( NULL );
      000064 90 00 00         [24]  188 	mov	dptr,#0x0000
      000067 75 F0 00         [24]  189 	mov	b,#0x00
      00006A                        190 00107$:
      00006A 02r00r00         [24]  191 	ljmp	__sdcc_banked_ret
                                    192 	.area CSEG    (CODE)
                                    193 	.area CONST   (CODE)
                                    194 	.area XINIT   (CODE)
                                    195 	.area CABS    (ABS,CODE)
