;--------------------------------------------------------
; File Created by SDCC : free open source ANSI-C Compiler
; Version 3.3.1 #8898 (Nov 27 2013) (Linux)
; This file was generated Wed Nov 27 12:27:59 2013
;--------------------------------------------------------
	.module sqrtf
	.optsdcc -mmcs51 --model-huge
	
;--------------------------------------------------------
; Public variables in this module
;--------------------------------------------------------
	.globl _ldexpf
	.globl _frexpf
	.globl _sqrtf
;--------------------------------------------------------
; special function registers
;--------------------------------------------------------
	.area RSEG    (ABS,DATA)
	.org 0x0000
;--------------------------------------------------------
; special function bits
;--------------------------------------------------------
	.area RSEG    (ABS,DATA)
	.org 0x0000
;--------------------------------------------------------
; overlayable register banks
;--------------------------------------------------------
	.area REG_BANK_0	(REL,OVR,DATA)
	.ds 8
;--------------------------------------------------------
; internal ram data
;--------------------------------------------------------
	.area DSEG    (DATA)
;--------------------------------------------------------
; overlayable items in internal ram 
;--------------------------------------------------------
;--------------------------------------------------------
; indirectly addressable internal ram data
;--------------------------------------------------------
	.area ISEG    (DATA)
;--------------------------------------------------------
; absolute internal ram data
;--------------------------------------------------------
	.area IABS    (ABS,DATA)
	.area IABS    (ABS,DATA)
;--------------------------------------------------------
; bit data
;--------------------------------------------------------
	.area BSEG    (BIT)
;--------------------------------------------------------
; paged external ram data
;--------------------------------------------------------
	.area PSEG    (PAG,XDATA)
;--------------------------------------------------------
; external ram data
;--------------------------------------------------------
	.area XSEG    (XDATA)
;--------------------------------------------------------
; absolute external ram data
;--------------------------------------------------------
	.area XABS    (ABS,XDATA)
;--------------------------------------------------------
; external initialized ram data
;--------------------------------------------------------
	.area XISEG   (XDATA)
	.area HOME    (CODE)
	.area GSINIT0 (CODE)
	.area GSINIT1 (CODE)
	.area GSINIT2 (CODE)
	.area GSINIT3 (CODE)
	.area GSINIT4 (CODE)
	.area GSINIT5 (CODE)
	.area GSINIT  (CODE)
	.area GSFINAL (CODE)
	.area CSEG    (CODE)
;--------------------------------------------------------
; global & static initialisations
;--------------------------------------------------------
	.area HOME    (CODE)
	.area GSINIT  (CODE)
	.area GSFINAL (CODE)
	.area GSINIT  (CODE)
;--------------------------------------------------------
; Home
;--------------------------------------------------------
	.area HOME    (CODE)
	.area HOME    (CODE)
;--------------------------------------------------------
; code
;--------------------------------------------------------
	.area CSEG    (CODE)
;------------------------------------------------------------
;Allocation info for local variables in function 'sqrtf'
;------------------------------------------------------------
;x                         Allocated to registers r4 r5 r6 r7 
;f                         Allocated to stack - _bp +5
;y                         Allocated to stack - _bp +9
;n                         Allocated to stack - _bp +13
;sloc0                     Allocated to stack - _bp +1
;------------------------------------------------------------
;	sqrtf.c:37: float sqrtf(const float x) _FLOAT_FUNC_REENTRANT
;	-----------------------------------------
;	 function sqrtf
;	-----------------------------------------
_sqrtf:
	ar7 = 0x07
	ar6 = 0x06
	ar5 = 0x05
	ar4 = 0x04
	ar3 = 0x03
	ar2 = 0x02
	ar1 = 0x01
	ar0 = 0x00
	push	_bp
	mov	_bp,sp
	mov	r4,dpl
	mov	r5,dph
	mov	r6,b
	mov	r7,a
	mov	a,sp
	add	a,#0x0E
	mov	sp,a
;	sqrtf.c:42: if (x==0.0) return x;
	mov	b,r4
	mov	a,r5
	orl	b,a
	mov	a,r6
	orl	b,a
	mov	a,r7
	anl	a,#0x7F
	orl	a,b
	jnz	00107$
	mov	dpl,r4
	mov	dph,r5
	mov	b,r6
	mov	a,r7
	ljmp	00111$
00107$:
;	sqrtf.c:43: else if (x==1.0) return 1.0;
	push	ar7
	push	ar6
	push	ar5
	push	ar4
	clr	a
	push	acc
	push	acc
	mov	a,#0x80
	push	acc
	mov	a,#0x3F
	push	acc
	mov	dpl,r4
	mov	dph,r5
	mov	b,r6
	mov	a,r7
	lcall	___fseq
	mov	r3,dpl
	mov	a,sp
	add	a,#0xfc
	mov	sp,a
	pop	ar4
	pop	ar5
	pop	ar6
	pop	ar7
	mov	a,r3
	jz	00104$
	mov	dptr,#0x0000
	mov	b,#0x80
	mov	a,#0x3F
	ljmp	00111$
00104$:
;	sqrtf.c:44: else if (x<0.0)
	push	ar7
	push	ar6
	push	ar5
	push	ar4
	clr	a
	push	acc
	push	acc
	push	acc
	push	acc
	mov	dpl,r4
	mov	dph,r5
	mov	b,r6
	mov	a,r7
	lcall	___fslt
	mov	r3,dpl
	mov	a,sp
	add	a,#0xfc
	mov	sp,a
	pop	ar4
	pop	ar5
	pop	ar6
	pop	ar7
	mov	a,r3
	jz	00108$
;	sqrtf.c:46: errno=EDOM;
	mov	dptr,#_errno
	mov	a,#0x21
	movx	@dptr,a
	clr	a
	inc	dptr
	movx	@dptr,a
;	sqrtf.c:47: return 0.0;
	mov	dptr,#(0x00&0x00ff)
	clr	a
	mov	b,a
	ljmp	00111$
00108$:
;	sqrtf.c:49: f=frexpf(x, &n);
	mov	a,_bp
	add	a,#0x0D
	mov	dptr,#_frexpf_PARM_2
	movx	@dptr,a
	clr	a
	inc	dptr
	movx	@dptr,a
	mov	a,#0x40
	inc	dptr
	movx	@dptr,a
	mov	dpl,r4
	mov	dph,r5
	mov	b,r6
	mov	a,r7
	mov	r0,#_frexpf
	mov	r1,#(_frexpf >> 8)
	mov	r2,#(_frexpf >> 16)
	lcall	__sdcc_banked_call
	mov	r4,dpl
	mov	r5,dph
	mov	r6,b
	mov	r7,a
	mov	a,_bp
	add	a,#0x05
	mov	r0,a
	mov	@r0,ar4
	inc	r0
	mov	@r0,ar5
	inc	r0
	mov	@r0,ar6
	inc	r0
	mov	@r0,ar7
;	sqrtf.c:50: y=0.41731+0.59016*f; /*Educated guess*/
	mov	a,_bp
	add	a,#0x05
	mov	r0,a
	mov	a,@r0
	push	acc
	inc	r0
	mov	a,@r0
	push	acc
	inc	r0
	mov	a,@r0
	push	acc
	inc	r0
	mov	a,@r0
	push	acc
	mov	dptr,#0x14BA
	mov	b,#0x17
	mov	a,#0x3F
	lcall	___fsmul
	mov	r2,dpl
	mov	r3,dph
	mov	r6,b
	mov	r7,a
	mov	a,sp
	add	a,#0xfc
	mov	sp,a
	mov	a,#0xA8
	push	acc
	inc	a
	push	acc
	mov	a,#0xD5
	push	acc
	mov	a,#0x3E
	push	acc
	mov	dpl,r2
	mov	dph,r3
	mov	b,r6
	mov	a,r7
	lcall	___fsadd
	mov	r4,dpl
	mov	r5,dph
	mov	r6,b
	mov	r7,a
	mov	a,sp
	add	a,#0xfc
	mov	sp,a
	mov	a,_bp
	add	a,#0x09
	mov	r0,a
	mov	@r0,ar4
	inc	r0
	mov	@r0,ar5
	inc	r0
	mov	@r0,ar6
	inc	r0
	mov	@r0,ar7
;	sqrtf.c:52: y+=f/y;
	mov	a,_bp
	add	a,#0x09
	mov	r0,a
	mov	a,@r0
	push	acc
	inc	r0
	mov	a,@r0
	push	acc
	inc	r0
	mov	a,@r0
	push	acc
	inc	r0
	mov	a,@r0
	push	acc
	mov	a,_bp
	add	a,#0x05
	mov	r0,a
	mov	dpl,@r0
	inc	r0
	mov	dph,@r0
	inc	r0
	mov	b,@r0
	inc	r0
	mov	a,@r0
	lcall	___fsdiv
	mov	r2,dpl
	mov	r3,dph
	mov	r6,b
	mov	r7,a
	mov	a,sp
	add	a,#0xfc
	mov	sp,a
	push	ar2
	push	ar3
	push	ar6
	push	ar7
	mov	a,_bp
	add	a,#0x09
	mov	r0,a
	mov	dpl,@r0
	inc	r0
	mov	dph,@r0
	inc	r0
	mov	b,@r0
	inc	r0
	mov	a,@r0
	lcall	___fsadd
	mov	r4,dpl
	mov	r5,dph
	mov	r6,b
	mov	r7,a
	mov	a,sp
	add	a,#0xfc
	mov	sp,a
	mov	a,_bp
	add	a,#0x09
	mov	r0,a
	mov	@r0,ar4
	inc	r0
	mov	@r0,ar5
	inc	r0
	mov	@r0,ar6
	inc	r0
	mov	@r0,ar7
;	sqrtf.c:53: y=ldexpf(y, -2) + f/y; /*Faster version of 0.25 * y + f/y*/
	mov	dptr,#_ldexpf_PARM_2
	mov	a,#0xFE
	movx	@dptr,a
	inc	a
	inc	dptr
	movx	@dptr,a
	mov	a,_bp
	add	a,#0x09
	mov	r0,a
	mov	dpl,@r0
	inc	r0
	mov	dph,@r0
	inc	r0
	mov	b,@r0
	inc	r0
	mov	a,@r0
	mov	r0,#_ldexpf
	mov	r1,#(_ldexpf >> 8)
	mov	r2,#(_ldexpf >> 16)
	lcall	__sdcc_banked_call
	mov	r0,_bp
	inc	r0
	mov	@r0,dpl
	inc	r0
	mov	@r0,dph
	inc	r0
	mov	@r0,b
	inc	r0
	mov	@r0,a
	mov	a,_bp
	add	a,#0x09
	mov	r0,a
	mov	a,@r0
	push	acc
	inc	r0
	mov	a,@r0
	push	acc
	inc	r0
	mov	a,@r0
	push	acc
	inc	r0
	mov	a,@r0
	push	acc
	mov	a,_bp
	add	a,#0x05
	mov	r0,a
	mov	dpl,@r0
	inc	r0
	mov	dph,@r0
	inc	r0
	mov	b,@r0
	inc	r0
	mov	a,@r0
	lcall	___fsdiv
	mov	r2,dpl
	mov	r3,dph
	mov	r6,b
	mov	r7,a
	mov	a,sp
	add	a,#0xfc
	mov	sp,a
	push	ar2
	push	ar3
	push	ar6
	push	ar7
	mov	r0,_bp
	inc	r0
	mov	dpl,@r0
	inc	r0
	mov	dph,@r0
	inc	r0
	mov	b,@r0
	inc	r0
	mov	a,@r0
	lcall	___fsadd
	mov	r4,dpl
	mov	r5,dph
	mov	r6,b
	mov	r7,a
	mov	a,sp
	add	a,#0xfc
	mov	sp,a
	mov	a,_bp
	add	a,#0x09
	mov	r0,a
	mov	@r0,ar4
	inc	r0
	mov	@r0,ar5
	inc	r0
	mov	@r0,ar6
	inc	r0
	mov	@r0,ar7
;	sqrtf.c:55: if (n&1)
	mov	a,_bp
	add	a,#0x0d
	mov	r0,a
	mov	a,@r0
	jnb	acc.0,00110$
;	sqrtf.c:57: y*=0.7071067812;
	mov	a,_bp
	add	a,#0x09
	mov	r0,a
	mov	a,@r0
	push	acc
	inc	r0
	mov	a,@r0
	push	acc
	inc	r0
	mov	a,@r0
	push	acc
	inc	r0
	mov	a,@r0
	push	acc
	mov	dptr,#0x04F3
	mov	b,#0x35
	mov	a,#0x3F
	lcall	___fsmul
	mov	r4,dpl
	mov	r5,dph
	mov	r6,b
	mov	r7,a
	mov	a,sp
	add	a,#0xfc
	mov	sp,a
	mov	a,_bp
	add	a,#0x09
	mov	r0,a
	mov	@r0,ar4
	inc	r0
	mov	@r0,ar5
	inc	r0
	mov	@r0,ar6
	inc	r0
	mov	@r0,ar7
;	sqrtf.c:58: ++n;
	mov	a,_bp
	add	a,#0x0d
	mov	r0,a
	inc	@r0
	cjne	@r0,#0x00,00129$
	inc	r0
	inc	@r0
00129$:
00110$:
;	sqrtf.c:60: return ldexpf(y, n/2);
	mov	dptr,#__divsint_PARM_2
	mov	a,#0x02
	movx	@dptr,a
	clr	a
	inc	dptr
	movx	@dptr,a
	mov	a,_bp
	add	a,#0x0d
	mov	r0,a
	mov	dpl,@r0
	inc	r0
	mov	dph,@r0
	lcall	__divsint
	mov	r6,dpl
	mov	r7,dph
	mov	dptr,#_ldexpf_PARM_2
	mov	a,r6
	movx	@dptr,a
	mov	a,r7
	inc	dptr
	movx	@dptr,a
	mov	a,_bp
	add	a,#0x09
	mov	r0,a
	mov	dpl,@r0
	inc	r0
	mov	dph,@r0
	inc	r0
	mov	b,@r0
	inc	r0
	mov	a,@r0
	mov	r0,#_ldexpf
	mov	r1,#(_ldexpf >> 8)
	mov	r2,#(_ldexpf >> 16)
	lcall	__sdcc_banked_call
	mov	r4,dpl
	mov	r5,dph
	mov	r6,b
	mov	r7,a
00111$:
	mov	sp,_bp
	pop	_bp
	ljmp	__sdcc_banked_ret
	.area CSEG    (CODE)
	.area CONST   (CODE)
	.area XINIT   (CODE)
	.area CABS    (ABS,CODE)
